ARM GAS  C:\Users\Trenton\AppData\Local\Temp\cc8U23mj.s 			page 1


   1              		.cpu cortex-m0
   2              		.fpu softvfp
   3              		.eabi_attribute 20, 1
   4              		.eabi_attribute 21, 1
   5              		.eabi_attribute 23, 3
   6              		.eabi_attribute 24, 1
   7              		.eabi_attribute 25, 1
   8              		.eabi_attribute 26, 1
   9              		.eabi_attribute 30, 6
  10              		.eabi_attribute 34, 0
  11              		.eabi_attribute 18, 4
  12              		.code	16
  13              		.file	"GLCD_SPIM_SCB_PM.c"
  14              		.text
  15              	.Ltext0:
  16              		.cfi_sections	.debug_frame
  17              		.global	GLCD_SPIM_SCB_backup
  18              		.bss
  19              		.align	2
  20              		.type	GLCD_SPIM_SCB_backup, %object
  21              		.size	GLCD_SPIM_SCB_backup, 1
  22              	GLCD_SPIM_SCB_backup:
  23 0000 00       		.space	1
  24 0001 000000   		.section	.text.GLCD_SPIM_SCB_Sleep,"ax",%progbits
  25              		.align	2
  26              		.global	GLCD_SPIM_SCB_Sleep
  27              		.code	16
  28              		.thumb_func
  29              		.type	GLCD_SPIM_SCB_Sleep, %function
  30              	GLCD_SPIM_SCB_Sleep:
  31              	.LFB0:
  32              		.file 1 ".\\Generated_Source\\PSoC4\\GLCD_SPIM_SCB_PM.c"
   1:.\Generated_Source\PSoC4/GLCD_SPIM_SCB_PM.c **** /*******************************************************************************
   2:.\Generated_Source\PSoC4/GLCD_SPIM_SCB_PM.c **** * File Name: GLCD_SPIM_SCB_PM.c
   3:.\Generated_Source\PSoC4/GLCD_SPIM_SCB_PM.c **** * Version 1.0
   4:.\Generated_Source\PSoC4/GLCD_SPIM_SCB_PM.c **** *
   5:.\Generated_Source\PSoC4/GLCD_SPIM_SCB_PM.c **** * Description:
   6:.\Generated_Source\PSoC4/GLCD_SPIM_SCB_PM.c **** *  This file provides the source code to the Power Management support for
   7:.\Generated_Source\PSoC4/GLCD_SPIM_SCB_PM.c **** *  the SCB Component.
   8:.\Generated_Source\PSoC4/GLCD_SPIM_SCB_PM.c **** *
   9:.\Generated_Source\PSoC4/GLCD_SPIM_SCB_PM.c **** * Note:
  10:.\Generated_Source\PSoC4/GLCD_SPIM_SCB_PM.c **** *
  11:.\Generated_Source\PSoC4/GLCD_SPIM_SCB_PM.c **** ********************************************************************************
  12:.\Generated_Source\PSoC4/GLCD_SPIM_SCB_PM.c **** * Copyright 2013, Cypress Semiconductor Corporation.  All rights reserved.
  13:.\Generated_Source\PSoC4/GLCD_SPIM_SCB_PM.c **** * You may use this file only in accordance with the license, terms, conditions,
  14:.\Generated_Source\PSoC4/GLCD_SPIM_SCB_PM.c **** * disclaimers, and limitations in the end user license agreement accompanying
  15:.\Generated_Source\PSoC4/GLCD_SPIM_SCB_PM.c **** * the software package with which this file was provided.
  16:.\Generated_Source\PSoC4/GLCD_SPIM_SCB_PM.c **** *******************************************************************************/
  17:.\Generated_Source\PSoC4/GLCD_SPIM_SCB_PM.c **** 
  18:.\Generated_Source\PSoC4/GLCD_SPIM_SCB_PM.c **** #include "GLCD_SPIM_SCB.h"
  19:.\Generated_Source\PSoC4/GLCD_SPIM_SCB_PM.c **** 
  20:.\Generated_Source\PSoC4/GLCD_SPIM_SCB_PM.c **** #if(GLCD_SPIM_SCB_SCB_MODE_I2C_INC)
  21:.\Generated_Source\PSoC4/GLCD_SPIM_SCB_PM.c ****     #include "GLCD_SPIM_SCB_I2C_PVT.h"
  22:.\Generated_Source\PSoC4/GLCD_SPIM_SCB_PM.c **** #endif /* (GLCD_SPIM_SCB_SCB_MODE_I2C_INC) */
  23:.\Generated_Source\PSoC4/GLCD_SPIM_SCB_PM.c **** 
  24:.\Generated_Source\PSoC4/GLCD_SPIM_SCB_PM.c **** #if(GLCD_SPIM_SCB_SCB_MODE_SPI_INC || GLCD_SPIM_SCB_SCB_MODE_UART_INC)
  25:.\Generated_Source\PSoC4/GLCD_SPIM_SCB_PM.c ****     #include "GLCD_SPIM_SCB_SPI_UART_PVT.h"
ARM GAS  C:\Users\Trenton\AppData\Local\Temp\cc8U23mj.s 			page 2


  26:.\Generated_Source\PSoC4/GLCD_SPIM_SCB_PM.c **** #endif /* (GLCD_SPIM_SCB_SCB_MODE_SPI_INC || GLCD_SPIM_SCB_SCB_MODE_UART_INC) */
  27:.\Generated_Source\PSoC4/GLCD_SPIM_SCB_PM.c **** 
  28:.\Generated_Source\PSoC4/GLCD_SPIM_SCB_PM.c **** 
  29:.\Generated_Source\PSoC4/GLCD_SPIM_SCB_PM.c **** /***************************************
  30:.\Generated_Source\PSoC4/GLCD_SPIM_SCB_PM.c **** *   Backup Structure declaration
  31:.\Generated_Source\PSoC4/GLCD_SPIM_SCB_PM.c **** ***************************************/
  32:.\Generated_Source\PSoC4/GLCD_SPIM_SCB_PM.c **** 
  33:.\Generated_Source\PSoC4/GLCD_SPIM_SCB_PM.c **** GLCD_SPIM_SCB_BACKUP_STRUCT GLCD_SPIM_SCB_backup =
  34:.\Generated_Source\PSoC4/GLCD_SPIM_SCB_PM.c **** {
  35:.\Generated_Source\PSoC4/GLCD_SPIM_SCB_PM.c ****     0u, /* enableState */
  36:.\Generated_Source\PSoC4/GLCD_SPIM_SCB_PM.c **** };
  37:.\Generated_Source\PSoC4/GLCD_SPIM_SCB_PM.c **** 
  38:.\Generated_Source\PSoC4/GLCD_SPIM_SCB_PM.c **** 
  39:.\Generated_Source\PSoC4/GLCD_SPIM_SCB_PM.c **** /*******************************************************************************
  40:.\Generated_Source\PSoC4/GLCD_SPIM_SCB_PM.c **** * Function Name: GLCD_SPIM_SCB_Sleep
  41:.\Generated_Source\PSoC4/GLCD_SPIM_SCB_PM.c **** ********************************************************************************
  42:.\Generated_Source\PSoC4/GLCD_SPIM_SCB_PM.c **** *
  43:.\Generated_Source\PSoC4/GLCD_SPIM_SCB_PM.c **** * Summary:
  44:.\Generated_Source\PSoC4/GLCD_SPIM_SCB_PM.c **** *  Calls SaveConfig function fucntion for selected mode.
  45:.\Generated_Source\PSoC4/GLCD_SPIM_SCB_PM.c **** *
  46:.\Generated_Source\PSoC4/GLCD_SPIM_SCB_PM.c **** * Parameters:
  47:.\Generated_Source\PSoC4/GLCD_SPIM_SCB_PM.c **** *  None
  48:.\Generated_Source\PSoC4/GLCD_SPIM_SCB_PM.c **** *
  49:.\Generated_Source\PSoC4/GLCD_SPIM_SCB_PM.c **** * Return:
  50:.\Generated_Source\PSoC4/GLCD_SPIM_SCB_PM.c **** *  None
  51:.\Generated_Source\PSoC4/GLCD_SPIM_SCB_PM.c **** *
  52:.\Generated_Source\PSoC4/GLCD_SPIM_SCB_PM.c **** *******************************************************************************/
  53:.\Generated_Source\PSoC4/GLCD_SPIM_SCB_PM.c **** void GLCD_SPIM_SCB_Sleep(void)
  54:.\Generated_Source\PSoC4/GLCD_SPIM_SCB_PM.c **** {
  33              		.loc 1 54 0
  34              		.cfi_startproc
  35 0000 80B5     		push	{r7, lr}
  36              	.LCFI0:
  37              		.cfi_def_cfa_offset 8
  38              		.cfi_offset 7, -8
  39              		.cfi_offset 14, -4
  40 0002 00AF     		add	r7, sp, #0
  41              	.LCFI1:
  42              		.cfi_def_cfa_register 7
  55:.\Generated_Source\PSoC4/GLCD_SPIM_SCB_PM.c ****     GLCD_SPIM_SCB_backup.enableState = (uint8) GLCD_SPIM_SCB_GET_CTRL_ENABLED;
  43              		.loc 1 55 0
  44 0004 084B     		ldr	r3, .L3
  45 0006 1B68     		ldr	r3, [r3]
  46 0008 DB0F     		lsr	r3, r3, #31
  47 000a DBB2     		uxtb	r3, r3
  48 000c 1A1C     		mov	r2, r3
  49 000e 074B     		ldr	r3, .L3+4
  50 0010 1A70     		strb	r2, [r3]
  56:.\Generated_Source\PSoC4/GLCD_SPIM_SCB_PM.c **** 
  57:.\Generated_Source\PSoC4/GLCD_SPIM_SCB_PM.c ****     #if(GLCD_SPIM_SCB_SCB_MODE_UNCONFIG_CONST_CFG)
  58:.\Generated_Source\PSoC4/GLCD_SPIM_SCB_PM.c **** 
  59:.\Generated_Source\PSoC4/GLCD_SPIM_SCB_PM.c ****         if(GLCD_SPIM_SCB_SCB_MODE_I2C_RUNTM_CFG)
  60:.\Generated_Source\PSoC4/GLCD_SPIM_SCB_PM.c ****         {
  61:.\Generated_Source\PSoC4/GLCD_SPIM_SCB_PM.c ****             GLCD_SPIM_SCB_I2CSaveConfig();
  62:.\Generated_Source\PSoC4/GLCD_SPIM_SCB_PM.c ****         }
  63:.\Generated_Source\PSoC4/GLCD_SPIM_SCB_PM.c ****         else if(GLCD_SPIM_SCB_SCB_MODE_SPI_RUNTM_CFG)
  64:.\Generated_Source\PSoC4/GLCD_SPIM_SCB_PM.c ****         {
ARM GAS  C:\Users\Trenton\AppData\Local\Temp\cc8U23mj.s 			page 3


  65:.\Generated_Source\PSoC4/GLCD_SPIM_SCB_PM.c ****             GLCD_SPIM_SCB_SpiSaveConfig();
  66:.\Generated_Source\PSoC4/GLCD_SPIM_SCB_PM.c ****         }
  67:.\Generated_Source\PSoC4/GLCD_SPIM_SCB_PM.c ****         else if(GLCD_SPIM_SCB_SCB_MODE_UART_RUNTM_CFG)
  68:.\Generated_Source\PSoC4/GLCD_SPIM_SCB_PM.c ****         {
  69:.\Generated_Source\PSoC4/GLCD_SPIM_SCB_PM.c ****             GLCD_SPIM_SCB_UartSaveConfig();
  70:.\Generated_Source\PSoC4/GLCD_SPIM_SCB_PM.c ****         }
  71:.\Generated_Source\PSoC4/GLCD_SPIM_SCB_PM.c ****         else
  72:.\Generated_Source\PSoC4/GLCD_SPIM_SCB_PM.c ****         {
  73:.\Generated_Source\PSoC4/GLCD_SPIM_SCB_PM.c ****             /* Unknown mode: do nothing */
  74:.\Generated_Source\PSoC4/GLCD_SPIM_SCB_PM.c ****         }
  75:.\Generated_Source\PSoC4/GLCD_SPIM_SCB_PM.c **** 
  76:.\Generated_Source\PSoC4/GLCD_SPIM_SCB_PM.c ****     #elif(GLCD_SPIM_SCB_SCB_MODE_I2C_CONST_CFG)
  77:.\Generated_Source\PSoC4/GLCD_SPIM_SCB_PM.c ****         GLCD_SPIM_SCB_I2CSaveConfig();
  78:.\Generated_Source\PSoC4/GLCD_SPIM_SCB_PM.c **** 
  79:.\Generated_Source\PSoC4/GLCD_SPIM_SCB_PM.c ****     #elif(GLCD_SPIM_SCB_SCB_MODE_SPI_CONST_CFG)
  80:.\Generated_Source\PSoC4/GLCD_SPIM_SCB_PM.c ****         GLCD_SPIM_SCB_SpiSaveConfig();
  51              		.loc 1 80 0
  52 0012 FFF7FEFF 		bl	GLCD_SPIM_SCB_SpiSaveConfig
  81:.\Generated_Source\PSoC4/GLCD_SPIM_SCB_PM.c **** 
  82:.\Generated_Source\PSoC4/GLCD_SPIM_SCB_PM.c ****     #elif(GLCD_SPIM_SCB_SCB_MODE_UART_CONST_CFG)
  83:.\Generated_Source\PSoC4/GLCD_SPIM_SCB_PM.c ****         GLCD_SPIM_SCB_UartSaveConfig();
  84:.\Generated_Source\PSoC4/GLCD_SPIM_SCB_PM.c **** 
  85:.\Generated_Source\PSoC4/GLCD_SPIM_SCB_PM.c ****     #else
  86:.\Generated_Source\PSoC4/GLCD_SPIM_SCB_PM.c ****         /* Do nothing */
  87:.\Generated_Source\PSoC4/GLCD_SPIM_SCB_PM.c **** 
  88:.\Generated_Source\PSoC4/GLCD_SPIM_SCB_PM.c ****     #endif /* (GLCD_SPIM_SCB_SCB_MODE_UNCONFIG_CONST_CFG) */
  89:.\Generated_Source\PSoC4/GLCD_SPIM_SCB_PM.c **** 
  90:.\Generated_Source\PSoC4/GLCD_SPIM_SCB_PM.c ****     if(0u != GLCD_SPIM_SCB_backup.enableState)
  53              		.loc 1 90 0
  54 0016 054B     		ldr	r3, .L3+4
  55 0018 1B78     		ldrb	r3, [r3]
  56 001a 002B     		cmp	r3, #0
  57 001c 01D0     		beq	.L1
  91:.\Generated_Source\PSoC4/GLCD_SPIM_SCB_PM.c ****     {
  92:.\Generated_Source\PSoC4/GLCD_SPIM_SCB_PM.c ****         GLCD_SPIM_SCB_Stop();
  58              		.loc 1 92 0
  59 001e FFF7FEFF 		bl	GLCD_SPIM_SCB_Stop
  60              	.L1:
  93:.\Generated_Source\PSoC4/GLCD_SPIM_SCB_PM.c ****     }
  94:.\Generated_Source\PSoC4/GLCD_SPIM_SCB_PM.c **** }
  61              		.loc 1 94 0
  62 0022 BD46     		mov	sp, r7
  63              		@ sp needed for prologue
  64 0024 80BD     		pop	{r7, pc}
  65              	.L4:
  66 0026 C046     		.align	2
  67              	.L3:
  68 0028 00000740 		.word	1074200576
  69 002c 00000000 		.word	GLCD_SPIM_SCB_backup
  70              		.cfi_endproc
  71              	.LFE0:
  72              		.size	GLCD_SPIM_SCB_Sleep, .-GLCD_SPIM_SCB_Sleep
  73              		.section	.text.GLCD_SPIM_SCB_Wakeup,"ax",%progbits
  74              		.align	2
  75              		.global	GLCD_SPIM_SCB_Wakeup
  76              		.code	16
  77              		.thumb_func
ARM GAS  C:\Users\Trenton\AppData\Local\Temp\cc8U23mj.s 			page 4


  78              		.type	GLCD_SPIM_SCB_Wakeup, %function
  79              	GLCD_SPIM_SCB_Wakeup:
  80              	.LFB1:
  95:.\Generated_Source\PSoC4/GLCD_SPIM_SCB_PM.c **** 
  96:.\Generated_Source\PSoC4/GLCD_SPIM_SCB_PM.c **** 
  97:.\Generated_Source\PSoC4/GLCD_SPIM_SCB_PM.c **** /*******************************************************************************
  98:.\Generated_Source\PSoC4/GLCD_SPIM_SCB_PM.c **** * Function Name: GLCD_SPIM_SCB_Wakeup
  99:.\Generated_Source\PSoC4/GLCD_SPIM_SCB_PM.c **** ********************************************************************************
 100:.\Generated_Source\PSoC4/GLCD_SPIM_SCB_PM.c **** *
 101:.\Generated_Source\PSoC4/GLCD_SPIM_SCB_PM.c **** * Summary:
 102:.\Generated_Source\PSoC4/GLCD_SPIM_SCB_PM.c **** *  Calls RestoreConfig function fucntion for selected mode.
 103:.\Generated_Source\PSoC4/GLCD_SPIM_SCB_PM.c **** *
 104:.\Generated_Source\PSoC4/GLCD_SPIM_SCB_PM.c **** * Parameters:
 105:.\Generated_Source\PSoC4/GLCD_SPIM_SCB_PM.c **** *  None
 106:.\Generated_Source\PSoC4/GLCD_SPIM_SCB_PM.c **** *
 107:.\Generated_Source\PSoC4/GLCD_SPIM_SCB_PM.c **** * Return:
 108:.\Generated_Source\PSoC4/GLCD_SPIM_SCB_PM.c **** *  None
 109:.\Generated_Source\PSoC4/GLCD_SPIM_SCB_PM.c **** *
 110:.\Generated_Source\PSoC4/GLCD_SPIM_SCB_PM.c **** *******************************************************************************/
 111:.\Generated_Source\PSoC4/GLCD_SPIM_SCB_PM.c **** void GLCD_SPIM_SCB_Wakeup(void)
 112:.\Generated_Source\PSoC4/GLCD_SPIM_SCB_PM.c **** {
  81              		.loc 1 112 0
  82              		.cfi_startproc
  83 0000 80B5     		push	{r7, lr}
  84              	.LCFI2:
  85              		.cfi_def_cfa_offset 8
  86              		.cfi_offset 7, -8
  87              		.cfi_offset 14, -4
  88 0002 00AF     		add	r7, sp, #0
  89              	.LCFI3:
  90              		.cfi_def_cfa_register 7
 113:.\Generated_Source\PSoC4/GLCD_SPIM_SCB_PM.c ****     #if(GLCD_SPIM_SCB_SCB_MODE_UNCONFIG_CONST_CFG)
 114:.\Generated_Source\PSoC4/GLCD_SPIM_SCB_PM.c **** 
 115:.\Generated_Source\PSoC4/GLCD_SPIM_SCB_PM.c ****         if(GLCD_SPIM_SCB_SCB_MODE_I2C_RUNTM_CFG)
 116:.\Generated_Source\PSoC4/GLCD_SPIM_SCB_PM.c ****         {
 117:.\Generated_Source\PSoC4/GLCD_SPIM_SCB_PM.c ****             GLCD_SPIM_SCB_I2CRestoreConfig();
 118:.\Generated_Source\PSoC4/GLCD_SPIM_SCB_PM.c ****         }
 119:.\Generated_Source\PSoC4/GLCD_SPIM_SCB_PM.c ****         else if(GLCD_SPIM_SCB_SCB_MODE_SPI_RUNTM_CFG)
 120:.\Generated_Source\PSoC4/GLCD_SPIM_SCB_PM.c ****         {
 121:.\Generated_Source\PSoC4/GLCD_SPIM_SCB_PM.c ****             GLCD_SPIM_SCB_SpiRestoreConfig();
 122:.\Generated_Source\PSoC4/GLCD_SPIM_SCB_PM.c ****         }
 123:.\Generated_Source\PSoC4/GLCD_SPIM_SCB_PM.c ****         else if(GLCD_SPIM_SCB_SCB_MODE_UART_RUNTM_CFG)
 124:.\Generated_Source\PSoC4/GLCD_SPIM_SCB_PM.c ****         {
 125:.\Generated_Source\PSoC4/GLCD_SPIM_SCB_PM.c ****             GLCD_SPIM_SCB_UartRestoreConfig();
 126:.\Generated_Source\PSoC4/GLCD_SPIM_SCB_PM.c ****         }
 127:.\Generated_Source\PSoC4/GLCD_SPIM_SCB_PM.c ****         else
 128:.\Generated_Source\PSoC4/GLCD_SPIM_SCB_PM.c ****         {
 129:.\Generated_Source\PSoC4/GLCD_SPIM_SCB_PM.c ****             /* Unknown mode: do nothing */
 130:.\Generated_Source\PSoC4/GLCD_SPIM_SCB_PM.c ****         }
 131:.\Generated_Source\PSoC4/GLCD_SPIM_SCB_PM.c **** 
 132:.\Generated_Source\PSoC4/GLCD_SPIM_SCB_PM.c ****     #elif(GLCD_SPIM_SCB_SCB_MODE_I2C_CONST_CFG)
 133:.\Generated_Source\PSoC4/GLCD_SPIM_SCB_PM.c ****         GLCD_SPIM_SCB_I2CRestoreConfig();
 134:.\Generated_Source\PSoC4/GLCD_SPIM_SCB_PM.c **** 
 135:.\Generated_Source\PSoC4/GLCD_SPIM_SCB_PM.c ****     #elif(GLCD_SPIM_SCB_SCB_MODE_SPI_CONST_CFG)
 136:.\Generated_Source\PSoC4/GLCD_SPIM_SCB_PM.c ****         GLCD_SPIM_SCB_SpiRestoreConfig();
  91              		.loc 1 136 0
  92 0004 FFF7FEFF 		bl	GLCD_SPIM_SCB_SpiRestoreConfig
ARM GAS  C:\Users\Trenton\AppData\Local\Temp\cc8U23mj.s 			page 5


 137:.\Generated_Source\PSoC4/GLCD_SPIM_SCB_PM.c **** 
 138:.\Generated_Source\PSoC4/GLCD_SPIM_SCB_PM.c ****     #elif(GLCD_SPIM_SCB_SCB_MODE_UART_CONST_CFG)
 139:.\Generated_Source\PSoC4/GLCD_SPIM_SCB_PM.c ****         GLCD_SPIM_SCB_UartRestoreConfig();
 140:.\Generated_Source\PSoC4/GLCD_SPIM_SCB_PM.c **** 
 141:.\Generated_Source\PSoC4/GLCD_SPIM_SCB_PM.c ****     #else
 142:.\Generated_Source\PSoC4/GLCD_SPIM_SCB_PM.c ****         /* Do nothing */
 143:.\Generated_Source\PSoC4/GLCD_SPIM_SCB_PM.c **** 
 144:.\Generated_Source\PSoC4/GLCD_SPIM_SCB_PM.c ****     #endif /* (GLCD_SPIM_SCB_SCB_MODE_UNCONFIG_CONST_CFG) */
 145:.\Generated_Source\PSoC4/GLCD_SPIM_SCB_PM.c **** 
 146:.\Generated_Source\PSoC4/GLCD_SPIM_SCB_PM.c ****     if(0u != GLCD_SPIM_SCB_backup.enableState)
  93              		.loc 1 146 0
  94 0008 034B     		ldr	r3, .L7
  95 000a 1B78     		ldrb	r3, [r3]
  96 000c 002B     		cmp	r3, #0
  97 000e 01D0     		beq	.L5
 147:.\Generated_Source\PSoC4/GLCD_SPIM_SCB_PM.c ****     {
 148:.\Generated_Source\PSoC4/GLCD_SPIM_SCB_PM.c ****         GLCD_SPIM_SCB_Enable();
  98              		.loc 1 148 0
  99 0010 FFF7FEFF 		bl	GLCD_SPIM_SCB_Enable
 100              	.L5:
 149:.\Generated_Source\PSoC4/GLCD_SPIM_SCB_PM.c ****     }
 150:.\Generated_Source\PSoC4/GLCD_SPIM_SCB_PM.c **** }
 101              		.loc 1 150 0
 102 0014 BD46     		mov	sp, r7
 103              		@ sp needed for prologue
 104 0016 80BD     		pop	{r7, pc}
 105              	.L8:
 106              		.align	2
 107              	.L7:
 108 0018 00000000 		.word	GLCD_SPIM_SCB_backup
 109              		.cfi_endproc
 110              	.LFE1:
 111              		.size	GLCD_SPIM_SCB_Wakeup, .-GLCD_SPIM_SCB_Wakeup
 112              		.text
 113              	.Letext0:
 114              		.file 2 ".\\Generated_Source\\PSoC4\\cytypes.h"
 115              		.file 3 ".\\Generated_Source\\PSoC4\\GLCD_SPIM_SCB.h"