ARM GAS  C:\Users\Colin\AppData\Local\Temp\ccYoaoge.s 			page 1


   1              		.cpu cortex-m0
   2              		.fpu softvfp
   3              		.eabi_attribute 20, 1
   4              		.eabi_attribute 21, 1
   5              		.eabi_attribute 23, 3
   6              		.eabi_attribute 24, 1
   7              		.eabi_attribute 25, 1
   8              		.eabi_attribute 26, 1
   9              		.eabi_attribute 30, 6
  10              		.eabi_attribute 34, 0
  11              		.eabi_attribute 18, 4
  12              		.code	16
  13              		.file	"GLCD_SPIM_UDB.c"
  14              		.text
  15              	.Ltext0:
  16              		.cfi_sections	.debug_frame
  17              		.global	GLCD_SPIM_UDB_initVar
  18              		.bss
  19              		.type	GLCD_SPIM_UDB_initVar, %object
  20              		.size	GLCD_SPIM_UDB_initVar, 1
  21              	GLCD_SPIM_UDB_initVar:
  22 0000 00       		.space	1
  23              		.comm	GLCD_SPIM_UDB_swStatusTx,1,1
  24              		.comm	GLCD_SPIM_UDB_swStatusRx,1,1
  25              		.section	.text.GLCD_SPIM_UDB_Init,"ax",%progbits
  26              		.align	2
  27              		.global	GLCD_SPIM_UDB_Init
  28              		.code	16
  29              		.thumb_func
  30              		.type	GLCD_SPIM_UDB_Init, %function
  31              	GLCD_SPIM_UDB_Init:
  32              	.LFB0:
  33              		.file 1 ".\\Generated_Source\\PSoC4\\GLCD_SPIM_UDB.c"
   1:.\Generated_Source\PSoC4/GLCD_SPIM_UDB.c **** /*******************************************************************************
   2:.\Generated_Source\PSoC4/GLCD_SPIM_UDB.c **** * File Name: GLCD_SPIM_UDB.c
   3:.\Generated_Source\PSoC4/GLCD_SPIM_UDB.c **** * Version 2.40
   4:.\Generated_Source\PSoC4/GLCD_SPIM_UDB.c **** *
   5:.\Generated_Source\PSoC4/GLCD_SPIM_UDB.c **** * Description:
   6:.\Generated_Source\PSoC4/GLCD_SPIM_UDB.c **** *  This file provides all API functionality of the SPI Master component.
   7:.\Generated_Source\PSoC4/GLCD_SPIM_UDB.c **** *
   8:.\Generated_Source\PSoC4/GLCD_SPIM_UDB.c **** * Note:
   9:.\Generated_Source\PSoC4/GLCD_SPIM_UDB.c **** *  None.
  10:.\Generated_Source\PSoC4/GLCD_SPIM_UDB.c **** *
  11:.\Generated_Source\PSoC4/GLCD_SPIM_UDB.c **** ********************************************************************************
  12:.\Generated_Source\PSoC4/GLCD_SPIM_UDB.c **** * Copyright 2008-2012, Cypress Semiconductor Corporation.  All rights reserved.
  13:.\Generated_Source\PSoC4/GLCD_SPIM_UDB.c **** * You may use this file only in accordance with the license, terms, conditions,
  14:.\Generated_Source\PSoC4/GLCD_SPIM_UDB.c **** * disclaimers, and limitations in the end user license agreement accompanying
  15:.\Generated_Source\PSoC4/GLCD_SPIM_UDB.c **** * the software package with which this file was provided.
  16:.\Generated_Source\PSoC4/GLCD_SPIM_UDB.c **** *******************************************************************************/
  17:.\Generated_Source\PSoC4/GLCD_SPIM_UDB.c **** 
  18:.\Generated_Source\PSoC4/GLCD_SPIM_UDB.c **** #include "GLCD_SPIM_UDB_PVT.h"
  19:.\Generated_Source\PSoC4/GLCD_SPIM_UDB.c **** 
  20:.\Generated_Source\PSoC4/GLCD_SPIM_UDB.c **** #if(GLCD_SPIM_UDB_TX_SOFTWARE_BUF_ENABLED)
  21:.\Generated_Source\PSoC4/GLCD_SPIM_UDB.c ****     volatile uint16 GLCD_SPIM_UDB_txBuffer[GLCD_SPIM_UDB_TX_BUFFER_SIZE] = {0u};
  22:.\Generated_Source\PSoC4/GLCD_SPIM_UDB.c ****     volatile uint8 GLCD_SPIM_UDB_txBufferFull;
  23:.\Generated_Source\PSoC4/GLCD_SPIM_UDB.c ****     volatile uint8 GLCD_SPIM_UDB_txBufferRead;
  24:.\Generated_Source\PSoC4/GLCD_SPIM_UDB.c ****     volatile uint8 GLCD_SPIM_UDB_txBufferWrite;
ARM GAS  C:\Users\Colin\AppData\Local\Temp\ccYoaoge.s 			page 2


  25:.\Generated_Source\PSoC4/GLCD_SPIM_UDB.c **** #endif /* (GLCD_SPIM_UDB_TX_SOFTWARE_BUF_ENABLED) */
  26:.\Generated_Source\PSoC4/GLCD_SPIM_UDB.c **** 
  27:.\Generated_Source\PSoC4/GLCD_SPIM_UDB.c **** #if(GLCD_SPIM_UDB_RX_SOFTWARE_BUF_ENABLED)
  28:.\Generated_Source\PSoC4/GLCD_SPIM_UDB.c ****     volatile uint16 GLCD_SPIM_UDB_rxBuffer[GLCD_SPIM_UDB_RX_BUFFER_SIZE] = {0u};
  29:.\Generated_Source\PSoC4/GLCD_SPIM_UDB.c ****     volatile uint8 GLCD_SPIM_UDB_rxBufferFull;
  30:.\Generated_Source\PSoC4/GLCD_SPIM_UDB.c ****     volatile uint8 GLCD_SPIM_UDB_rxBufferRead;
  31:.\Generated_Source\PSoC4/GLCD_SPIM_UDB.c ****     volatile uint8 GLCD_SPIM_UDB_rxBufferWrite;
  32:.\Generated_Source\PSoC4/GLCD_SPIM_UDB.c **** #endif /* (GLCD_SPIM_UDB_RX_SOFTWARE_BUF_ENABLED) */
  33:.\Generated_Source\PSoC4/GLCD_SPIM_UDB.c **** 
  34:.\Generated_Source\PSoC4/GLCD_SPIM_UDB.c **** uint8 GLCD_SPIM_UDB_initVar = 0u;
  35:.\Generated_Source\PSoC4/GLCD_SPIM_UDB.c **** 
  36:.\Generated_Source\PSoC4/GLCD_SPIM_UDB.c **** volatile uint8 GLCD_SPIM_UDB_swStatusTx;
  37:.\Generated_Source\PSoC4/GLCD_SPIM_UDB.c **** volatile uint8 GLCD_SPIM_UDB_swStatusRx;
  38:.\Generated_Source\PSoC4/GLCD_SPIM_UDB.c **** 
  39:.\Generated_Source\PSoC4/GLCD_SPIM_UDB.c **** 
  40:.\Generated_Source\PSoC4/GLCD_SPIM_UDB.c **** /*******************************************************************************
  41:.\Generated_Source\PSoC4/GLCD_SPIM_UDB.c **** * Function Name: GLCD_SPIM_UDB_Init
  42:.\Generated_Source\PSoC4/GLCD_SPIM_UDB.c **** ********************************************************************************
  43:.\Generated_Source\PSoC4/GLCD_SPIM_UDB.c **** *
  44:.\Generated_Source\PSoC4/GLCD_SPIM_UDB.c **** * Summary:
  45:.\Generated_Source\PSoC4/GLCD_SPIM_UDB.c **** *  Inits/Restores default SPIM configuration provided with customizer.
  46:.\Generated_Source\PSoC4/GLCD_SPIM_UDB.c **** *
  47:.\Generated_Source\PSoC4/GLCD_SPIM_UDB.c **** * Parameters:
  48:.\Generated_Source\PSoC4/GLCD_SPIM_UDB.c **** *  None.
  49:.\Generated_Source\PSoC4/GLCD_SPIM_UDB.c **** *
  50:.\Generated_Source\PSoC4/GLCD_SPIM_UDB.c **** * Return:
  51:.\Generated_Source\PSoC4/GLCD_SPIM_UDB.c **** *  None.
  52:.\Generated_Source\PSoC4/GLCD_SPIM_UDB.c **** *
  53:.\Generated_Source\PSoC4/GLCD_SPIM_UDB.c **** * Side Effects:
  54:.\Generated_Source\PSoC4/GLCD_SPIM_UDB.c **** *  When this function is called it initializes all of the necessary parameters
  55:.\Generated_Source\PSoC4/GLCD_SPIM_UDB.c **** *  for execution. i.e. setting the initial interrupt mask, configuring the
  56:.\Generated_Source\PSoC4/GLCD_SPIM_UDB.c **** *  interrupt service routine, configuring the bit-counter parameters and
  57:.\Generated_Source\PSoC4/GLCD_SPIM_UDB.c **** *  clearing the FIFO and Status Register.
  58:.\Generated_Source\PSoC4/GLCD_SPIM_UDB.c **** *
  59:.\Generated_Source\PSoC4/GLCD_SPIM_UDB.c **** * Reentrant:
  60:.\Generated_Source\PSoC4/GLCD_SPIM_UDB.c **** *  No.
  61:.\Generated_Source\PSoC4/GLCD_SPIM_UDB.c **** *
  62:.\Generated_Source\PSoC4/GLCD_SPIM_UDB.c **** *******************************************************************************/
  63:.\Generated_Source\PSoC4/GLCD_SPIM_UDB.c **** void GLCD_SPIM_UDB_Init(void) 
  64:.\Generated_Source\PSoC4/GLCD_SPIM_UDB.c **** {
  34              		.loc 1 64 0
  35              		.cfi_startproc
  36 0000 80B5     		push	{r7, lr}
  37              	.LCFI0:
  38              		.cfi_def_cfa_offset 8
  39              		.cfi_offset 7, -8
  40              		.cfi_offset 14, -4
  41 0002 00AF     		add	r7, sp, #0
  42              	.LCFI1:
  43              		.cfi_def_cfa_register 7
  65:.\Generated_Source\PSoC4/GLCD_SPIM_UDB.c ****     /* Initialize the Bit counter */
  66:.\Generated_Source\PSoC4/GLCD_SPIM_UDB.c ****     GLCD_SPIM_UDB_COUNTER_PERIOD_REG = GLCD_SPIM_UDB_BITCTR_INIT;
  44              		.loc 1 66 0
  45 0004 084B     		ldr	r3, .L2
  46 0006 1122     		mov	r2, #17
  47 0008 1A70     		strb	r2, [r3]
  67:.\Generated_Source\PSoC4/GLCD_SPIM_UDB.c **** 
ARM GAS  C:\Users\Colin\AppData\Local\Temp\ccYoaoge.s 			page 3


  68:.\Generated_Source\PSoC4/GLCD_SPIM_UDB.c ****     /* Init TX ISR  */
  69:.\Generated_Source\PSoC4/GLCD_SPIM_UDB.c ****     #if(0u != GLCD_SPIM_UDB_INTERNAL_TX_INT_ENABLED)
  70:.\Generated_Source\PSoC4/GLCD_SPIM_UDB.c ****         CyIntDisable         (GLCD_SPIM_UDB_TX_ISR_NUMBER);
  71:.\Generated_Source\PSoC4/GLCD_SPIM_UDB.c ****         CyIntSetPriority     (GLCD_SPIM_UDB_TX_ISR_NUMBER,  GLCD_SPIM_UDB_TX_ISR_PRIORITY);
  72:.\Generated_Source\PSoC4/GLCD_SPIM_UDB.c ****         (void) CyIntSetVector(GLCD_SPIM_UDB_TX_ISR_NUMBER, &GLCD_SPIM_UDB_TX_ISR);
  73:.\Generated_Source\PSoC4/GLCD_SPIM_UDB.c ****     #endif /* (0u != GLCD_SPIM_UDB_INTERNAL_TX_INT_ENABLED) */
  74:.\Generated_Source\PSoC4/GLCD_SPIM_UDB.c **** 
  75:.\Generated_Source\PSoC4/GLCD_SPIM_UDB.c ****     /* Init RX ISR  */
  76:.\Generated_Source\PSoC4/GLCD_SPIM_UDB.c ****     #if(0u != GLCD_SPIM_UDB_INTERNAL_RX_INT_ENABLED)
  77:.\Generated_Source\PSoC4/GLCD_SPIM_UDB.c ****         CyIntDisable         (GLCD_SPIM_UDB_RX_ISR_NUMBER);
  78:.\Generated_Source\PSoC4/GLCD_SPIM_UDB.c ****         CyIntSetPriority     (GLCD_SPIM_UDB_RX_ISR_NUMBER,  GLCD_SPIM_UDB_RX_ISR_PRIORITY);
  79:.\Generated_Source\PSoC4/GLCD_SPIM_UDB.c ****         (void) CyIntSetVector(GLCD_SPIM_UDB_RX_ISR_NUMBER, &GLCD_SPIM_UDB_RX_ISR);
  80:.\Generated_Source\PSoC4/GLCD_SPIM_UDB.c ****     #endif /* (0u != GLCD_SPIM_UDB_INTERNAL_RX_INT_ENABLED) */
  81:.\Generated_Source\PSoC4/GLCD_SPIM_UDB.c **** 
  82:.\Generated_Source\PSoC4/GLCD_SPIM_UDB.c ****     /* Clear any stray data from the RX and TX FIFO */
  83:.\Generated_Source\PSoC4/GLCD_SPIM_UDB.c ****     GLCD_SPIM_UDB_ClearFIFO();
  48              		.loc 1 83 0
  49 000a FFF7FEFF 		bl	GLCD_SPIM_UDB_ClearFIFO
  84:.\Generated_Source\PSoC4/GLCD_SPIM_UDB.c **** 
  85:.\Generated_Source\PSoC4/GLCD_SPIM_UDB.c ****     #if(GLCD_SPIM_UDB_RX_SOFTWARE_BUF_ENABLED)
  86:.\Generated_Source\PSoC4/GLCD_SPIM_UDB.c ****         GLCD_SPIM_UDB_rxBufferFull  = 0u;
  87:.\Generated_Source\PSoC4/GLCD_SPIM_UDB.c ****         GLCD_SPIM_UDB_rxBufferRead  = 0u;
  88:.\Generated_Source\PSoC4/GLCD_SPIM_UDB.c ****         GLCD_SPIM_UDB_rxBufferWrite = 0u;
  89:.\Generated_Source\PSoC4/GLCD_SPIM_UDB.c ****     #endif /* (GLCD_SPIM_UDB_RX_SOFTWARE_BUF_ENABLED) */
  90:.\Generated_Source\PSoC4/GLCD_SPIM_UDB.c **** 
  91:.\Generated_Source\PSoC4/GLCD_SPIM_UDB.c ****     #if(GLCD_SPIM_UDB_TX_SOFTWARE_BUF_ENABLED)
  92:.\Generated_Source\PSoC4/GLCD_SPIM_UDB.c ****         GLCD_SPIM_UDB_txBufferFull  = 0u;
  93:.\Generated_Source\PSoC4/GLCD_SPIM_UDB.c ****         GLCD_SPIM_UDB_txBufferRead  = 0u;
  94:.\Generated_Source\PSoC4/GLCD_SPIM_UDB.c ****         GLCD_SPIM_UDB_txBufferWrite = 0u;
  95:.\Generated_Source\PSoC4/GLCD_SPIM_UDB.c ****     #endif /* (GLCD_SPIM_UDB_TX_SOFTWARE_BUF_ENABLED) */
  96:.\Generated_Source\PSoC4/GLCD_SPIM_UDB.c **** 
  97:.\Generated_Source\PSoC4/GLCD_SPIM_UDB.c ****     (void) GLCD_SPIM_UDB_ReadTxStatus(); /* Clear Tx status and swStatusTx */
  50              		.loc 1 97 0
  51 000e FFF7FEFF 		bl	GLCD_SPIM_UDB_ReadTxStatus
  98:.\Generated_Source\PSoC4/GLCD_SPIM_UDB.c ****     (void) GLCD_SPIM_UDB_ReadRxStatus(); /* Clear Rx status and swStatusRx */
  52              		.loc 1 98 0
  53 0012 FFF7FEFF 		bl	GLCD_SPIM_UDB_ReadRxStatus
  99:.\Generated_Source\PSoC4/GLCD_SPIM_UDB.c **** 
 100:.\Generated_Source\PSoC4/GLCD_SPIM_UDB.c ****     /* Configure TX and RX interrupt mask */
 101:.\Generated_Source\PSoC4/GLCD_SPIM_UDB.c ****     GLCD_SPIM_UDB_TX_STATUS_MASK_REG = GLCD_SPIM_UDB_TX_INIT_INTERRUPTS_MASK;
  54              		.loc 1 101 0
  55 0016 054B     		ldr	r3, .L2+4
  56 0018 0022     		mov	r2, #0
  57 001a 1A70     		strb	r2, [r3]
 102:.\Generated_Source\PSoC4/GLCD_SPIM_UDB.c ****     GLCD_SPIM_UDB_RX_STATUS_MASK_REG = GLCD_SPIM_UDB_RX_INIT_INTERRUPTS_MASK;
  58              		.loc 1 102 0
  59 001c 044B     		ldr	r3, .L2+8
  60 001e 0022     		mov	r2, #0
  61 0020 1A70     		strb	r2, [r3]
 103:.\Generated_Source\PSoC4/GLCD_SPIM_UDB.c **** }
  62              		.loc 1 103 0
  63 0022 BD46     		mov	sp, r7
  64              		@ sp needed for prologue
  65 0024 80BD     		pop	{r7, pc}
  66              	.L3:
  67 0026 C046     		.align	2
  68              	.L2:
ARM GAS  C:\Users\Colin\AppData\Local\Temp\ccYoaoge.s 			page 4


  69 0028 81000F40 		.word	1074724993
  70 002c 82000F40 		.word	1074724994
  71 0030 80000F40 		.word	1074724992
  72              		.cfi_endproc
  73              	.LFE0:
  74              		.size	GLCD_SPIM_UDB_Init, .-GLCD_SPIM_UDB_Init
  75              		.section	.text.GLCD_SPIM_UDB_Enable,"ax",%progbits
  76              		.align	2
  77              		.global	GLCD_SPIM_UDB_Enable
  78              		.code	16
  79              		.thumb_func
  80              		.type	GLCD_SPIM_UDB_Enable, %function
  81              	GLCD_SPIM_UDB_Enable:
  82              	.LFB1:
 104:.\Generated_Source\PSoC4/GLCD_SPIM_UDB.c **** 
 105:.\Generated_Source\PSoC4/GLCD_SPIM_UDB.c **** 
 106:.\Generated_Source\PSoC4/GLCD_SPIM_UDB.c **** /*******************************************************************************
 107:.\Generated_Source\PSoC4/GLCD_SPIM_UDB.c **** * Function Name: GLCD_SPIM_UDB_Enable
 108:.\Generated_Source\PSoC4/GLCD_SPIM_UDB.c **** ********************************************************************************
 109:.\Generated_Source\PSoC4/GLCD_SPIM_UDB.c **** *
 110:.\Generated_Source\PSoC4/GLCD_SPIM_UDB.c **** * Summary:
 111:.\Generated_Source\PSoC4/GLCD_SPIM_UDB.c **** *  Enable SPIM component.
 112:.\Generated_Source\PSoC4/GLCD_SPIM_UDB.c **** *
 113:.\Generated_Source\PSoC4/GLCD_SPIM_UDB.c **** * Parameters:
 114:.\Generated_Source\PSoC4/GLCD_SPIM_UDB.c **** *  None.
 115:.\Generated_Source\PSoC4/GLCD_SPIM_UDB.c **** *
 116:.\Generated_Source\PSoC4/GLCD_SPIM_UDB.c **** * Return:
 117:.\Generated_Source\PSoC4/GLCD_SPIM_UDB.c **** *  None.
 118:.\Generated_Source\PSoC4/GLCD_SPIM_UDB.c **** *
 119:.\Generated_Source\PSoC4/GLCD_SPIM_UDB.c **** *******************************************************************************/
 120:.\Generated_Source\PSoC4/GLCD_SPIM_UDB.c **** void GLCD_SPIM_UDB_Enable(void) 
 121:.\Generated_Source\PSoC4/GLCD_SPIM_UDB.c **** {
  83              		.loc 1 121 0
  84              		.cfi_startproc
  85 0000 90B5     		push	{r4, r7, lr}
  86              	.LCFI2:
  87              		.cfi_def_cfa_offset 12
  88              		.cfi_offset 4, -12
  89              		.cfi_offset 7, -8
  90              		.cfi_offset 14, -4
  91 0002 83B0     		sub	sp, sp, #12
  92              	.LCFI3:
  93              		.cfi_def_cfa_offset 24
  94 0004 00AF     		add	r7, sp, #0
  95              	.LCFI4:
  96              		.cfi_def_cfa_register 7
 122:.\Generated_Source\PSoC4/GLCD_SPIM_UDB.c ****     uint8 enableInterrupts;
 123:.\Generated_Source\PSoC4/GLCD_SPIM_UDB.c **** 
 124:.\Generated_Source\PSoC4/GLCD_SPIM_UDB.c ****     enableInterrupts = CyEnterCriticalSection();
  97              		.loc 1 124 0
  98 0006 FC1D     		add	r4, r7, #7
  99 0008 FFF7FEFF 		bl	CyEnterCriticalSection
 100 000c 031C     		mov	r3, r0
 101 000e 2370     		strb	r3, [r4]
 125:.\Generated_Source\PSoC4/GLCD_SPIM_UDB.c ****     GLCD_SPIM_UDB_COUNTER_CONTROL_REG |= GLCD_SPIM_UDB_CNTR_ENABLE;
 102              		.loc 1 125 0
 103 0010 124B     		ldr	r3, .L5
ARM GAS  C:\Users\Colin\AppData\Local\Temp\ccYoaoge.s 			page 5


 104 0012 124A     		ldr	r2, .L5
 105 0014 1278     		ldrb	r2, [r2]
 106 0016 D2B2     		uxtb	r2, r2
 107 0018 2021     		mov	r1, #32
 108 001a 0A43     		orr	r2, r1
 109 001c D2B2     		uxtb	r2, r2
 110 001e 1A70     		strb	r2, [r3]
 126:.\Generated_Source\PSoC4/GLCD_SPIM_UDB.c ****     GLCD_SPIM_UDB_TX_STATUS_ACTL_REG  |= GLCD_SPIM_UDB_INT_ENABLE;
 111              		.loc 1 126 0
 112 0020 0F4B     		ldr	r3, .L5+4
 113 0022 0F4A     		ldr	r2, .L5+4
 114 0024 1278     		ldrb	r2, [r2]
 115 0026 D2B2     		uxtb	r2, r2
 116 0028 1021     		mov	r1, #16
 117 002a 0A43     		orr	r2, r1
 118 002c D2B2     		uxtb	r2, r2
 119 002e 1A70     		strb	r2, [r3]
 127:.\Generated_Source\PSoC4/GLCD_SPIM_UDB.c ****     GLCD_SPIM_UDB_RX_STATUS_ACTL_REG  |= GLCD_SPIM_UDB_INT_ENABLE;
 120              		.loc 1 127 0
 121 0030 0C4B     		ldr	r3, .L5+8
 122 0032 0C4A     		ldr	r2, .L5+8
 123 0034 1278     		ldrb	r2, [r2]
 124 0036 D2B2     		uxtb	r2, r2
 125 0038 1021     		mov	r1, #16
 126 003a 0A43     		orr	r2, r1
 127 003c D2B2     		uxtb	r2, r2
 128 003e 1A70     		strb	r2, [r3]
 128:.\Generated_Source\PSoC4/GLCD_SPIM_UDB.c ****     CyExitCriticalSection(enableInterrupts);
 129              		.loc 1 128 0
 130 0040 FB1D     		add	r3, r7, #7
 131 0042 1B78     		ldrb	r3, [r3]
 132 0044 181C     		mov	r0, r3
 133 0046 FFF7FEFF 		bl	CyExitCriticalSection
 129:.\Generated_Source\PSoC4/GLCD_SPIM_UDB.c **** 
 130:.\Generated_Source\PSoC4/GLCD_SPIM_UDB.c ****     #if(0u != GLCD_SPIM_UDB_INTERNAL_CLOCK)
 131:.\Generated_Source\PSoC4/GLCD_SPIM_UDB.c ****         GLCD_SPIM_UDB_IntClock_Enable();
 134              		.loc 1 131 0
 135 004a FFF7FEFF 		bl	GLCD_SPIM_UDB_IntClock_Start
 132:.\Generated_Source\PSoC4/GLCD_SPIM_UDB.c ****     #endif /* (0u != GLCD_SPIM_UDB_INTERNAL_CLOCK) */
 133:.\Generated_Source\PSoC4/GLCD_SPIM_UDB.c **** 
 134:.\Generated_Source\PSoC4/GLCD_SPIM_UDB.c ****     GLCD_SPIM_UDB_EnableTxInt();
 136              		.loc 1 134 0
 137 004e FFF7FEFF 		bl	GLCD_SPIM_UDB_EnableTxInt
 135:.\Generated_Source\PSoC4/GLCD_SPIM_UDB.c ****     GLCD_SPIM_UDB_EnableRxInt();
 138              		.loc 1 135 0
 139 0052 FFF7FEFF 		bl	GLCD_SPIM_UDB_EnableRxInt
 136:.\Generated_Source\PSoC4/GLCD_SPIM_UDB.c **** }
 140              		.loc 1 136 0
 141 0056 BD46     		mov	sp, r7
 142 0058 03B0     		add	sp, sp, #12
 143              		@ sp needed for prologue
 144 005a 90BD     		pop	{r4, r7, pc}
 145              	.L6:
 146              		.align	2
 147              	.L5:
 148 005c 91000F40 		.word	1074725009
 149 0060 92000F40 		.word	1074725010
ARM GAS  C:\Users\Colin\AppData\Local\Temp\ccYoaoge.s 			page 6


 150 0064 90000F40 		.word	1074725008
 151              		.cfi_endproc
 152              	.LFE1:
 153              		.size	GLCD_SPIM_UDB_Enable, .-GLCD_SPIM_UDB_Enable
 154              		.section	.text.GLCD_SPIM_UDB_Start,"ax",%progbits
 155              		.align	2
 156              		.global	GLCD_SPIM_UDB_Start
 157              		.code	16
 158              		.thumb_func
 159              		.type	GLCD_SPIM_UDB_Start, %function
 160              	GLCD_SPIM_UDB_Start:
 161              	.LFB2:
 137:.\Generated_Source\PSoC4/GLCD_SPIM_UDB.c **** 
 138:.\Generated_Source\PSoC4/GLCD_SPIM_UDB.c **** 
 139:.\Generated_Source\PSoC4/GLCD_SPIM_UDB.c **** /*******************************************************************************
 140:.\Generated_Source\PSoC4/GLCD_SPIM_UDB.c **** * Function Name: GLCD_SPIM_UDB_Start
 141:.\Generated_Source\PSoC4/GLCD_SPIM_UDB.c **** ********************************************************************************
 142:.\Generated_Source\PSoC4/GLCD_SPIM_UDB.c **** *
 143:.\Generated_Source\PSoC4/GLCD_SPIM_UDB.c **** * Summary:
 144:.\Generated_Source\PSoC4/GLCD_SPIM_UDB.c **** *  Initialize and Enable the SPI Master component.
 145:.\Generated_Source\PSoC4/GLCD_SPIM_UDB.c **** *
 146:.\Generated_Source\PSoC4/GLCD_SPIM_UDB.c **** * Parameters:
 147:.\Generated_Source\PSoC4/GLCD_SPIM_UDB.c **** *  None.
 148:.\Generated_Source\PSoC4/GLCD_SPIM_UDB.c **** *
 149:.\Generated_Source\PSoC4/GLCD_SPIM_UDB.c **** * Return:
 150:.\Generated_Source\PSoC4/GLCD_SPIM_UDB.c **** *  None.
 151:.\Generated_Source\PSoC4/GLCD_SPIM_UDB.c **** *
 152:.\Generated_Source\PSoC4/GLCD_SPIM_UDB.c **** * Global variables:
 153:.\Generated_Source\PSoC4/GLCD_SPIM_UDB.c **** *  GLCD_SPIM_UDB_initVar - used to check initial configuration, modified on
 154:.\Generated_Source\PSoC4/GLCD_SPIM_UDB.c **** *  first function call.
 155:.\Generated_Source\PSoC4/GLCD_SPIM_UDB.c **** *
 156:.\Generated_Source\PSoC4/GLCD_SPIM_UDB.c **** * Theory:
 157:.\Generated_Source\PSoC4/GLCD_SPIM_UDB.c **** *  Enable the clock input to enable operation.
 158:.\Generated_Source\PSoC4/GLCD_SPIM_UDB.c **** *
 159:.\Generated_Source\PSoC4/GLCD_SPIM_UDB.c **** * Reentrant:
 160:.\Generated_Source\PSoC4/GLCD_SPIM_UDB.c **** *  No.
 161:.\Generated_Source\PSoC4/GLCD_SPIM_UDB.c **** *
 162:.\Generated_Source\PSoC4/GLCD_SPIM_UDB.c **** *******************************************************************************/
 163:.\Generated_Source\PSoC4/GLCD_SPIM_UDB.c **** void GLCD_SPIM_UDB_Start(void) 
 164:.\Generated_Source\PSoC4/GLCD_SPIM_UDB.c **** {
 162              		.loc 1 164 0
 163              		.cfi_startproc
 164 0000 80B5     		push	{r7, lr}
 165              	.LCFI5:
 166              		.cfi_def_cfa_offset 8
 167              		.cfi_offset 7, -8
 168              		.cfi_offset 14, -4
 169 0002 00AF     		add	r7, sp, #0
 170              	.LCFI6:
 171              		.cfi_def_cfa_register 7
 165:.\Generated_Source\PSoC4/GLCD_SPIM_UDB.c ****     if(0u == GLCD_SPIM_UDB_initVar)
 172              		.loc 1 165 0
 173 0004 064B     		ldr	r3, .L9
 174 0006 1B78     		ldrb	r3, [r3]
 175 0008 002B     		cmp	r3, #0
 176 000a 04D1     		bne	.L8
 166:.\Generated_Source\PSoC4/GLCD_SPIM_UDB.c ****     {
ARM GAS  C:\Users\Colin\AppData\Local\Temp\ccYoaoge.s 			page 7


 167:.\Generated_Source\PSoC4/GLCD_SPIM_UDB.c ****         GLCD_SPIM_UDB_Init();
 177              		.loc 1 167 0
 178 000c FFF7FEFF 		bl	GLCD_SPIM_UDB_Init
 168:.\Generated_Source\PSoC4/GLCD_SPIM_UDB.c ****         GLCD_SPIM_UDB_initVar = 1u;
 179              		.loc 1 168 0
 180 0010 034B     		ldr	r3, .L9
 181 0012 0122     		mov	r2, #1
 182 0014 1A70     		strb	r2, [r3]
 183              	.L8:
 169:.\Generated_Source\PSoC4/GLCD_SPIM_UDB.c ****     }
 170:.\Generated_Source\PSoC4/GLCD_SPIM_UDB.c **** 
 171:.\Generated_Source\PSoC4/GLCD_SPIM_UDB.c ****     GLCD_SPIM_UDB_Enable();
 184              		.loc 1 171 0
 185 0016 FFF7FEFF 		bl	GLCD_SPIM_UDB_Enable
 172:.\Generated_Source\PSoC4/GLCD_SPIM_UDB.c **** }
 186              		.loc 1 172 0
 187 001a BD46     		mov	sp, r7
 188              		@ sp needed for prologue
 189 001c 80BD     		pop	{r7, pc}
 190              	.L10:
 191 001e C046     		.align	2
 192              	.L9:
 193 0020 00000000 		.word	GLCD_SPIM_UDB_initVar
 194              		.cfi_endproc
 195              	.LFE2:
 196              		.size	GLCD_SPIM_UDB_Start, .-GLCD_SPIM_UDB_Start
 197              		.section	.text.GLCD_SPIM_UDB_Stop,"ax",%progbits
 198              		.align	2
 199              		.global	GLCD_SPIM_UDB_Stop
 200              		.code	16
 201              		.thumb_func
 202              		.type	GLCD_SPIM_UDB_Stop, %function
 203              	GLCD_SPIM_UDB_Stop:
 204              	.LFB3:
 173:.\Generated_Source\PSoC4/GLCD_SPIM_UDB.c **** 
 174:.\Generated_Source\PSoC4/GLCD_SPIM_UDB.c **** 
 175:.\Generated_Source\PSoC4/GLCD_SPIM_UDB.c **** /*******************************************************************************
 176:.\Generated_Source\PSoC4/GLCD_SPIM_UDB.c **** * Function Name: GLCD_SPIM_UDB_Stop
 177:.\Generated_Source\PSoC4/GLCD_SPIM_UDB.c **** ********************************************************************************
 178:.\Generated_Source\PSoC4/GLCD_SPIM_UDB.c **** *
 179:.\Generated_Source\PSoC4/GLCD_SPIM_UDB.c **** * Summary:
 180:.\Generated_Source\PSoC4/GLCD_SPIM_UDB.c **** *  Disable the SPI Master component.
 181:.\Generated_Source\PSoC4/GLCD_SPIM_UDB.c **** *
 182:.\Generated_Source\PSoC4/GLCD_SPIM_UDB.c **** * Parameters:
 183:.\Generated_Source\PSoC4/GLCD_SPIM_UDB.c **** *  None.
 184:.\Generated_Source\PSoC4/GLCD_SPIM_UDB.c **** *
 185:.\Generated_Source\PSoC4/GLCD_SPIM_UDB.c **** * Return:
 186:.\Generated_Source\PSoC4/GLCD_SPIM_UDB.c **** *  None.
 187:.\Generated_Source\PSoC4/GLCD_SPIM_UDB.c **** *
 188:.\Generated_Source\PSoC4/GLCD_SPIM_UDB.c **** * Theory:
 189:.\Generated_Source\PSoC4/GLCD_SPIM_UDB.c **** *  Disable the clock input to enable operation.
 190:.\Generated_Source\PSoC4/GLCD_SPIM_UDB.c **** *
 191:.\Generated_Source\PSoC4/GLCD_SPIM_UDB.c **** *******************************************************************************/
 192:.\Generated_Source\PSoC4/GLCD_SPIM_UDB.c **** void GLCD_SPIM_UDB_Stop(void) 
 193:.\Generated_Source\PSoC4/GLCD_SPIM_UDB.c **** {
 205              		.loc 1 193 0
 206              		.cfi_startproc
ARM GAS  C:\Users\Colin\AppData\Local\Temp\ccYoaoge.s 			page 8


 207 0000 90B5     		push	{r4, r7, lr}
 208              	.LCFI7:
 209              		.cfi_def_cfa_offset 12
 210              		.cfi_offset 4, -12
 211              		.cfi_offset 7, -8
 212              		.cfi_offset 14, -4
 213 0002 83B0     		sub	sp, sp, #12
 214              	.LCFI8:
 215              		.cfi_def_cfa_offset 24
 216 0004 00AF     		add	r7, sp, #0
 217              	.LCFI9:
 218              		.cfi_def_cfa_register 7
 194:.\Generated_Source\PSoC4/GLCD_SPIM_UDB.c ****     uint8 enableInterrupts;
 195:.\Generated_Source\PSoC4/GLCD_SPIM_UDB.c **** 
 196:.\Generated_Source\PSoC4/GLCD_SPIM_UDB.c ****     enableInterrupts = CyEnterCriticalSection();
 219              		.loc 1 196 0
 220 0006 FC1D     		add	r4, r7, #7
 221 0008 FFF7FEFF 		bl	CyEnterCriticalSection
 222 000c 031C     		mov	r3, r0
 223 000e 2370     		strb	r3, [r4]
 197:.\Generated_Source\PSoC4/GLCD_SPIM_UDB.c ****     GLCD_SPIM_UDB_TX_STATUS_ACTL_REG &= ((uint8) ~GLCD_SPIM_UDB_INT_ENABLE);
 224              		.loc 1 197 0
 225 0010 0E4B     		ldr	r3, .L12
 226 0012 0E4A     		ldr	r2, .L12
 227 0014 1278     		ldrb	r2, [r2]
 228 0016 D2B2     		uxtb	r2, r2
 229 0018 1021     		mov	r1, #16
 230 001a 8A43     		bic	r2, r1
 231 001c D2B2     		uxtb	r2, r2
 232 001e 1A70     		strb	r2, [r3]
 198:.\Generated_Source\PSoC4/GLCD_SPIM_UDB.c ****     GLCD_SPIM_UDB_RX_STATUS_ACTL_REG &= ((uint8) ~GLCD_SPIM_UDB_INT_ENABLE);
 233              		.loc 1 198 0
 234 0020 0B4B     		ldr	r3, .L12+4
 235 0022 0B4A     		ldr	r2, .L12+4
 236 0024 1278     		ldrb	r2, [r2]
 237 0026 D2B2     		uxtb	r2, r2
 238 0028 1021     		mov	r1, #16
 239 002a 8A43     		bic	r2, r1
 240 002c D2B2     		uxtb	r2, r2
 241 002e 1A70     		strb	r2, [r3]
 199:.\Generated_Source\PSoC4/GLCD_SPIM_UDB.c ****     CyExitCriticalSection(enableInterrupts);
 242              		.loc 1 199 0
 243 0030 FB1D     		add	r3, r7, #7
 244 0032 1B78     		ldrb	r3, [r3]
 245 0034 181C     		mov	r0, r3
 246 0036 FFF7FEFF 		bl	CyExitCriticalSection
 200:.\Generated_Source\PSoC4/GLCD_SPIM_UDB.c **** 
 201:.\Generated_Source\PSoC4/GLCD_SPIM_UDB.c ****     #if(0u != GLCD_SPIM_UDB_INTERNAL_CLOCK)
 202:.\Generated_Source\PSoC4/GLCD_SPIM_UDB.c ****         GLCD_SPIM_UDB_IntClock_Disable();
 247              		.loc 1 202 0
 248 003a FFF7FEFF 		bl	GLCD_SPIM_UDB_IntClock_Stop
 203:.\Generated_Source\PSoC4/GLCD_SPIM_UDB.c ****     #endif /* (0u != GLCD_SPIM_UDB_INTERNAL_CLOCK) */
 204:.\Generated_Source\PSoC4/GLCD_SPIM_UDB.c **** 
 205:.\Generated_Source\PSoC4/GLCD_SPIM_UDB.c ****     GLCD_SPIM_UDB_DisableTxInt();
 249              		.loc 1 205 0
 250 003e FFF7FEFF 		bl	GLCD_SPIM_UDB_DisableTxInt
 206:.\Generated_Source\PSoC4/GLCD_SPIM_UDB.c ****     GLCD_SPIM_UDB_DisableRxInt();
ARM GAS  C:\Users\Colin\AppData\Local\Temp\ccYoaoge.s 			page 9


 251              		.loc 1 206 0
 252 0042 FFF7FEFF 		bl	GLCD_SPIM_UDB_DisableRxInt
 207:.\Generated_Source\PSoC4/GLCD_SPIM_UDB.c **** }
 253              		.loc 1 207 0
 254 0046 BD46     		mov	sp, r7
 255 0048 03B0     		add	sp, sp, #12
 256              		@ sp needed for prologue
 257 004a 90BD     		pop	{r4, r7, pc}
 258              	.L13:
 259              		.align	2
 260              	.L12:
 261 004c 92000F40 		.word	1074725010
 262 0050 90000F40 		.word	1074725008
 263              		.cfi_endproc
 264              	.LFE3:
 265              		.size	GLCD_SPIM_UDB_Stop, .-GLCD_SPIM_UDB_Stop
 266              		.section	.text.GLCD_SPIM_UDB_EnableTxInt,"ax",%progbits
 267              		.align	2
 268              		.global	GLCD_SPIM_UDB_EnableTxInt
 269              		.code	16
 270              		.thumb_func
 271              		.type	GLCD_SPIM_UDB_EnableTxInt, %function
 272              	GLCD_SPIM_UDB_EnableTxInt:
 273              	.LFB4:
 208:.\Generated_Source\PSoC4/GLCD_SPIM_UDB.c **** 
 209:.\Generated_Source\PSoC4/GLCD_SPIM_UDB.c **** 
 210:.\Generated_Source\PSoC4/GLCD_SPIM_UDB.c **** /*******************************************************************************
 211:.\Generated_Source\PSoC4/GLCD_SPIM_UDB.c **** * Function Name: GLCD_SPIM_UDB_EnableTxInt
 212:.\Generated_Source\PSoC4/GLCD_SPIM_UDB.c **** ********************************************************************************
 213:.\Generated_Source\PSoC4/GLCD_SPIM_UDB.c **** *
 214:.\Generated_Source\PSoC4/GLCD_SPIM_UDB.c **** * Summary:
 215:.\Generated_Source\PSoC4/GLCD_SPIM_UDB.c **** *  Enable internal Tx interrupt generation.
 216:.\Generated_Source\PSoC4/GLCD_SPIM_UDB.c **** *
 217:.\Generated_Source\PSoC4/GLCD_SPIM_UDB.c **** * Parameters:
 218:.\Generated_Source\PSoC4/GLCD_SPIM_UDB.c **** *  None.
 219:.\Generated_Source\PSoC4/GLCD_SPIM_UDB.c **** *
 220:.\Generated_Source\PSoC4/GLCD_SPIM_UDB.c **** * Return:
 221:.\Generated_Source\PSoC4/GLCD_SPIM_UDB.c **** *  None.
 222:.\Generated_Source\PSoC4/GLCD_SPIM_UDB.c **** *
 223:.\Generated_Source\PSoC4/GLCD_SPIM_UDB.c **** * Theory:
 224:.\Generated_Source\PSoC4/GLCD_SPIM_UDB.c **** *  Enable the internal Tx interrupt output -or- the interrupt component itself.
 225:.\Generated_Source\PSoC4/GLCD_SPIM_UDB.c **** *
 226:.\Generated_Source\PSoC4/GLCD_SPIM_UDB.c **** *******************************************************************************/
 227:.\Generated_Source\PSoC4/GLCD_SPIM_UDB.c **** void GLCD_SPIM_UDB_EnableTxInt(void) 
 228:.\Generated_Source\PSoC4/GLCD_SPIM_UDB.c **** {
 274              		.loc 1 228 0
 275              		.cfi_startproc
 276 0000 80B5     		push	{r7, lr}
 277              	.LCFI10:
 278              		.cfi_def_cfa_offset 8
 279              		.cfi_offset 7, -8
 280              		.cfi_offset 14, -4
 281 0002 00AF     		add	r7, sp, #0
 282              	.LCFI11:
 283              		.cfi_def_cfa_register 7
 229:.\Generated_Source\PSoC4/GLCD_SPIM_UDB.c ****     #if(0u != GLCD_SPIM_UDB_INTERNAL_TX_INT_ENABLED)
 230:.\Generated_Source\PSoC4/GLCD_SPIM_UDB.c ****         CyIntEnable(GLCD_SPIM_UDB_TX_ISR_NUMBER);
ARM GAS  C:\Users\Colin\AppData\Local\Temp\ccYoaoge.s 			page 10


 231:.\Generated_Source\PSoC4/GLCD_SPIM_UDB.c ****     #endif /* (0u != GLCD_SPIM_UDB_INTERNAL_TX_INT_ENABLED) */
 232:.\Generated_Source\PSoC4/GLCD_SPIM_UDB.c **** }
 284              		.loc 1 232 0
 285 0004 BD46     		mov	sp, r7
 286              		@ sp needed for prologue
 287 0006 80BD     		pop	{r7, pc}
 288              		.cfi_endproc
 289              	.LFE4:
 290              		.size	GLCD_SPIM_UDB_EnableTxInt, .-GLCD_SPIM_UDB_EnableTxInt
 291              		.section	.text.GLCD_SPIM_UDB_EnableRxInt,"ax",%progbits
 292              		.align	2
 293              		.global	GLCD_SPIM_UDB_EnableRxInt
 294              		.code	16
 295              		.thumb_func
 296              		.type	GLCD_SPIM_UDB_EnableRxInt, %function
 297              	GLCD_SPIM_UDB_EnableRxInt:
 298              	.LFB5:
 233:.\Generated_Source\PSoC4/GLCD_SPIM_UDB.c **** 
 234:.\Generated_Source\PSoC4/GLCD_SPIM_UDB.c **** 
 235:.\Generated_Source\PSoC4/GLCD_SPIM_UDB.c **** /*******************************************************************************
 236:.\Generated_Source\PSoC4/GLCD_SPIM_UDB.c **** * Function Name: GLCD_SPIM_UDB_EnableRxInt
 237:.\Generated_Source\PSoC4/GLCD_SPIM_UDB.c **** ********************************************************************************
 238:.\Generated_Source\PSoC4/GLCD_SPIM_UDB.c **** *
 239:.\Generated_Source\PSoC4/GLCD_SPIM_UDB.c **** * Summary:
 240:.\Generated_Source\PSoC4/GLCD_SPIM_UDB.c **** *  Enable internal Rx interrupt generation.
 241:.\Generated_Source\PSoC4/GLCD_SPIM_UDB.c **** *
 242:.\Generated_Source\PSoC4/GLCD_SPIM_UDB.c **** * Parameters:
 243:.\Generated_Source\PSoC4/GLCD_SPIM_UDB.c **** *  None.
 244:.\Generated_Source\PSoC4/GLCD_SPIM_UDB.c **** *
 245:.\Generated_Source\PSoC4/GLCD_SPIM_UDB.c **** * Return:
 246:.\Generated_Source\PSoC4/GLCD_SPIM_UDB.c **** *  None.
 247:.\Generated_Source\PSoC4/GLCD_SPIM_UDB.c **** *
 248:.\Generated_Source\PSoC4/GLCD_SPIM_UDB.c **** * Theory:
 249:.\Generated_Source\PSoC4/GLCD_SPIM_UDB.c **** *  Enable the internal Rx interrupt output -or- the interrupt component itself.
 250:.\Generated_Source\PSoC4/GLCD_SPIM_UDB.c **** *
 251:.\Generated_Source\PSoC4/GLCD_SPIM_UDB.c **** *******************************************************************************/
 252:.\Generated_Source\PSoC4/GLCD_SPIM_UDB.c **** void GLCD_SPIM_UDB_EnableRxInt(void) 
 253:.\Generated_Source\PSoC4/GLCD_SPIM_UDB.c **** {
 299              		.loc 1 253 0
 300              		.cfi_startproc
 301 0000 80B5     		push	{r7, lr}
 302              	.LCFI12:
 303              		.cfi_def_cfa_offset 8
 304              		.cfi_offset 7, -8
 305              		.cfi_offset 14, -4
 306 0002 00AF     		add	r7, sp, #0
 307              	.LCFI13:
 308              		.cfi_def_cfa_register 7
 254:.\Generated_Source\PSoC4/GLCD_SPIM_UDB.c ****     #if(0u != GLCD_SPIM_UDB_INTERNAL_RX_INT_ENABLED)
 255:.\Generated_Source\PSoC4/GLCD_SPIM_UDB.c ****         CyIntEnable(GLCD_SPIM_UDB_RX_ISR_NUMBER);
 256:.\Generated_Source\PSoC4/GLCD_SPIM_UDB.c ****     #endif /* (0u != GLCD_SPIM_UDB_INTERNAL_RX_INT_ENABLED) */
 257:.\Generated_Source\PSoC4/GLCD_SPIM_UDB.c **** }
 309              		.loc 1 257 0
 310 0004 BD46     		mov	sp, r7
 311              		@ sp needed for prologue
 312 0006 80BD     		pop	{r7, pc}
 313              		.cfi_endproc
ARM GAS  C:\Users\Colin\AppData\Local\Temp\ccYoaoge.s 			page 11


 314              	.LFE5:
 315              		.size	GLCD_SPIM_UDB_EnableRxInt, .-GLCD_SPIM_UDB_EnableRxInt
 316              		.section	.text.GLCD_SPIM_UDB_DisableTxInt,"ax",%progbits
 317              		.align	2
 318              		.global	GLCD_SPIM_UDB_DisableTxInt
 319              		.code	16
 320              		.thumb_func
 321              		.type	GLCD_SPIM_UDB_DisableTxInt, %function
 322              	GLCD_SPIM_UDB_DisableTxInt:
 323              	.LFB6:
 258:.\Generated_Source\PSoC4/GLCD_SPIM_UDB.c **** 
 259:.\Generated_Source\PSoC4/GLCD_SPIM_UDB.c **** 
 260:.\Generated_Source\PSoC4/GLCD_SPIM_UDB.c **** /*******************************************************************************
 261:.\Generated_Source\PSoC4/GLCD_SPIM_UDB.c **** * Function Name: GLCD_SPIM_UDB_DisableTxInt
 262:.\Generated_Source\PSoC4/GLCD_SPIM_UDB.c **** ********************************************************************************
 263:.\Generated_Source\PSoC4/GLCD_SPIM_UDB.c **** *
 264:.\Generated_Source\PSoC4/GLCD_SPIM_UDB.c **** * Summary:
 265:.\Generated_Source\PSoC4/GLCD_SPIM_UDB.c **** *  Disable internal Tx interrupt generation.
 266:.\Generated_Source\PSoC4/GLCD_SPIM_UDB.c **** *
 267:.\Generated_Source\PSoC4/GLCD_SPIM_UDB.c **** * Parameters:
 268:.\Generated_Source\PSoC4/GLCD_SPIM_UDB.c **** *  None.
 269:.\Generated_Source\PSoC4/GLCD_SPIM_UDB.c **** *
 270:.\Generated_Source\PSoC4/GLCD_SPIM_UDB.c **** * Return:
 271:.\Generated_Source\PSoC4/GLCD_SPIM_UDB.c **** *  None.
 272:.\Generated_Source\PSoC4/GLCD_SPIM_UDB.c **** *
 273:.\Generated_Source\PSoC4/GLCD_SPIM_UDB.c **** * Theory:
 274:.\Generated_Source\PSoC4/GLCD_SPIM_UDB.c **** *  Disable the internal Tx interrupt output -or- the interrupt component itself.
 275:.\Generated_Source\PSoC4/GLCD_SPIM_UDB.c **** *
 276:.\Generated_Source\PSoC4/GLCD_SPIM_UDB.c **** *******************************************************************************/
 277:.\Generated_Source\PSoC4/GLCD_SPIM_UDB.c **** void GLCD_SPIM_UDB_DisableTxInt(void) 
 278:.\Generated_Source\PSoC4/GLCD_SPIM_UDB.c **** {
 324              		.loc 1 278 0
 325              		.cfi_startproc
 326 0000 80B5     		push	{r7, lr}
 327              	.LCFI14:
 328              		.cfi_def_cfa_offset 8
 329              		.cfi_offset 7, -8
 330              		.cfi_offset 14, -4
 331 0002 00AF     		add	r7, sp, #0
 332              	.LCFI15:
 333              		.cfi_def_cfa_register 7
 279:.\Generated_Source\PSoC4/GLCD_SPIM_UDB.c ****     #if(0u != GLCD_SPIM_UDB_INTERNAL_TX_INT_ENABLED)
 280:.\Generated_Source\PSoC4/GLCD_SPIM_UDB.c ****         CyIntDisable(GLCD_SPIM_UDB_TX_ISR_NUMBER);
 281:.\Generated_Source\PSoC4/GLCD_SPIM_UDB.c ****     #endif /* (0u != GLCD_SPIM_UDB_INTERNAL_TX_INT_ENABLED) */
 282:.\Generated_Source\PSoC4/GLCD_SPIM_UDB.c **** }
 334              		.loc 1 282 0
 335 0004 BD46     		mov	sp, r7
 336              		@ sp needed for prologue
 337 0006 80BD     		pop	{r7, pc}
 338              		.cfi_endproc
 339              	.LFE6:
 340              		.size	GLCD_SPIM_UDB_DisableTxInt, .-GLCD_SPIM_UDB_DisableTxInt
 341              		.section	.text.GLCD_SPIM_UDB_DisableRxInt,"ax",%progbits
 342              		.align	2
 343              		.global	GLCD_SPIM_UDB_DisableRxInt
 344              		.code	16
 345              		.thumb_func
ARM GAS  C:\Users\Colin\AppData\Local\Temp\ccYoaoge.s 			page 12


 346              		.type	GLCD_SPIM_UDB_DisableRxInt, %function
 347              	GLCD_SPIM_UDB_DisableRxInt:
 348              	.LFB7:
 283:.\Generated_Source\PSoC4/GLCD_SPIM_UDB.c **** 
 284:.\Generated_Source\PSoC4/GLCD_SPIM_UDB.c **** 
 285:.\Generated_Source\PSoC4/GLCD_SPIM_UDB.c **** /*******************************************************************************
 286:.\Generated_Source\PSoC4/GLCD_SPIM_UDB.c **** * Function Name: GLCD_SPIM_UDB_DisableRxInt
 287:.\Generated_Source\PSoC4/GLCD_SPIM_UDB.c **** ********************************************************************************
 288:.\Generated_Source\PSoC4/GLCD_SPIM_UDB.c **** *
 289:.\Generated_Source\PSoC4/GLCD_SPIM_UDB.c **** * Summary:
 290:.\Generated_Source\PSoC4/GLCD_SPIM_UDB.c **** *  Disable internal Rx interrupt generation.
 291:.\Generated_Source\PSoC4/GLCD_SPIM_UDB.c **** *
 292:.\Generated_Source\PSoC4/GLCD_SPIM_UDB.c **** * Parameters:
 293:.\Generated_Source\PSoC4/GLCD_SPIM_UDB.c **** *  None.
 294:.\Generated_Source\PSoC4/GLCD_SPIM_UDB.c **** *
 295:.\Generated_Source\PSoC4/GLCD_SPIM_UDB.c **** * Return:
 296:.\Generated_Source\PSoC4/GLCD_SPIM_UDB.c **** *  None.
 297:.\Generated_Source\PSoC4/GLCD_SPIM_UDB.c **** *
 298:.\Generated_Source\PSoC4/GLCD_SPIM_UDB.c **** * Theory:
 299:.\Generated_Source\PSoC4/GLCD_SPIM_UDB.c **** *  Disable the internal Rx interrupt output -or- the interrupt component itself.
 300:.\Generated_Source\PSoC4/GLCD_SPIM_UDB.c **** *
 301:.\Generated_Source\PSoC4/GLCD_SPIM_UDB.c **** *******************************************************************************/
 302:.\Generated_Source\PSoC4/GLCD_SPIM_UDB.c **** void GLCD_SPIM_UDB_DisableRxInt(void) 
 303:.\Generated_Source\PSoC4/GLCD_SPIM_UDB.c **** {
 349              		.loc 1 303 0
 350              		.cfi_startproc
 351 0000 80B5     		push	{r7, lr}
 352              	.LCFI16:
 353              		.cfi_def_cfa_offset 8
 354              		.cfi_offset 7, -8
 355              		.cfi_offset 14, -4
 356 0002 00AF     		add	r7, sp, #0
 357              	.LCFI17:
 358              		.cfi_def_cfa_register 7
 304:.\Generated_Source\PSoC4/GLCD_SPIM_UDB.c ****     #if(0u != GLCD_SPIM_UDB_INTERNAL_RX_INT_ENABLED)
 305:.\Generated_Source\PSoC4/GLCD_SPIM_UDB.c ****         CyIntDisable(GLCD_SPIM_UDB_RX_ISR_NUMBER);
 306:.\Generated_Source\PSoC4/GLCD_SPIM_UDB.c ****     #endif /* (0u != GLCD_SPIM_UDB_INTERNAL_RX_INT_ENABLED) */
 307:.\Generated_Source\PSoC4/GLCD_SPIM_UDB.c **** }
 359              		.loc 1 307 0
 360 0004 BD46     		mov	sp, r7
 361              		@ sp needed for prologue
 362 0006 80BD     		pop	{r7, pc}
 363              		.cfi_endproc
 364              	.LFE7:
 365              		.size	GLCD_SPIM_UDB_DisableRxInt, .-GLCD_SPIM_UDB_DisableRxInt
 366              		.section	.text.GLCD_SPIM_UDB_SetTxInterruptMode,"ax",%progbits
 367              		.align	2
 368              		.global	GLCD_SPIM_UDB_SetTxInterruptMode
 369              		.code	16
 370              		.thumb_func
 371              		.type	GLCD_SPIM_UDB_SetTxInterruptMode, %function
 372              	GLCD_SPIM_UDB_SetTxInterruptMode:
 373              	.LFB8:
 308:.\Generated_Source\PSoC4/GLCD_SPIM_UDB.c **** 
 309:.\Generated_Source\PSoC4/GLCD_SPIM_UDB.c **** 
 310:.\Generated_Source\PSoC4/GLCD_SPIM_UDB.c **** /*******************************************************************************
 311:.\Generated_Source\PSoC4/GLCD_SPIM_UDB.c **** * Function Name: GLCD_SPIM_UDB_SetTxInterruptMode
ARM GAS  C:\Users\Colin\AppData\Local\Temp\ccYoaoge.s 			page 13


 312:.\Generated_Source\PSoC4/GLCD_SPIM_UDB.c **** ********************************************************************************
 313:.\Generated_Source\PSoC4/GLCD_SPIM_UDB.c **** *
 314:.\Generated_Source\PSoC4/GLCD_SPIM_UDB.c **** * Summary:
 315:.\Generated_Source\PSoC4/GLCD_SPIM_UDB.c **** *  Configure which status bits trigger an interrupt event.
 316:.\Generated_Source\PSoC4/GLCD_SPIM_UDB.c **** *
 317:.\Generated_Source\PSoC4/GLCD_SPIM_UDB.c **** * Parameters:
 318:.\Generated_Source\PSoC4/GLCD_SPIM_UDB.c **** *  intSrc: An or'd combination of the desired status bit masks (defined in the
 319:.\Generated_Source\PSoC4/GLCD_SPIM_UDB.c **** *  header file).
 320:.\Generated_Source\PSoC4/GLCD_SPIM_UDB.c **** *
 321:.\Generated_Source\PSoC4/GLCD_SPIM_UDB.c **** * Return:
 322:.\Generated_Source\PSoC4/GLCD_SPIM_UDB.c **** *  None.
 323:.\Generated_Source\PSoC4/GLCD_SPIM_UDB.c **** *
 324:.\Generated_Source\PSoC4/GLCD_SPIM_UDB.c **** * Theory:
 325:.\Generated_Source\PSoC4/GLCD_SPIM_UDB.c **** *  Enables the output of specific status bits to the interrupt controller.
 326:.\Generated_Source\PSoC4/GLCD_SPIM_UDB.c **** *
 327:.\Generated_Source\PSoC4/GLCD_SPIM_UDB.c **** *******************************************************************************/
 328:.\Generated_Source\PSoC4/GLCD_SPIM_UDB.c **** void GLCD_SPIM_UDB_SetTxInterruptMode(uint8 intSrc) 
 329:.\Generated_Source\PSoC4/GLCD_SPIM_UDB.c **** {
 374              		.loc 1 329 0
 375              		.cfi_startproc
 376 0000 80B5     		push	{r7, lr}
 377              	.LCFI18:
 378              		.cfi_def_cfa_offset 8
 379              		.cfi_offset 7, -8
 380              		.cfi_offset 14, -4
 381 0002 82B0     		sub	sp, sp, #8
 382              	.LCFI19:
 383              		.cfi_def_cfa_offset 16
 384 0004 00AF     		add	r7, sp, #0
 385              	.LCFI20:
 386              		.cfi_def_cfa_register 7
 387 0006 021C     		mov	r2, r0
 388 0008 FB1D     		add	r3, r7, #7
 389 000a 1A70     		strb	r2, [r3]
 330:.\Generated_Source\PSoC4/GLCD_SPIM_UDB.c ****     GLCD_SPIM_UDB_TX_STATUS_MASK_REG = intSrc;
 390              		.loc 1 330 0
 391 000c 034B     		ldr	r3, .L19
 392 000e FA1D     		add	r2, r7, #7
 393 0010 1278     		ldrb	r2, [r2]
 394 0012 1A70     		strb	r2, [r3]
 331:.\Generated_Source\PSoC4/GLCD_SPIM_UDB.c **** }
 395              		.loc 1 331 0
 396 0014 BD46     		mov	sp, r7
 397 0016 02B0     		add	sp, sp, #8
 398              		@ sp needed for prologue
 399 0018 80BD     		pop	{r7, pc}
 400              	.L20:
 401 001a C046     		.align	2
 402              	.L19:
 403 001c 82000F40 		.word	1074724994
 404              		.cfi_endproc
 405              	.LFE8:
 406              		.size	GLCD_SPIM_UDB_SetTxInterruptMode, .-GLCD_SPIM_UDB_SetTxInterruptMode
 407              		.section	.text.GLCD_SPIM_UDB_SetRxInterruptMode,"ax",%progbits
 408              		.align	2
 409              		.global	GLCD_SPIM_UDB_SetRxInterruptMode
 410              		.code	16
ARM GAS  C:\Users\Colin\AppData\Local\Temp\ccYoaoge.s 			page 14


 411              		.thumb_func
 412              		.type	GLCD_SPIM_UDB_SetRxInterruptMode, %function
 413              	GLCD_SPIM_UDB_SetRxInterruptMode:
 414              	.LFB9:
 332:.\Generated_Source\PSoC4/GLCD_SPIM_UDB.c **** 
 333:.\Generated_Source\PSoC4/GLCD_SPIM_UDB.c **** 
 334:.\Generated_Source\PSoC4/GLCD_SPIM_UDB.c **** /*******************************************************************************
 335:.\Generated_Source\PSoC4/GLCD_SPIM_UDB.c **** * Function Name: GLCD_SPIM_UDB_SetRxInterruptMode
 336:.\Generated_Source\PSoC4/GLCD_SPIM_UDB.c **** ********************************************************************************
 337:.\Generated_Source\PSoC4/GLCD_SPIM_UDB.c **** *
 338:.\Generated_Source\PSoC4/GLCD_SPIM_UDB.c **** * Summary:
 339:.\Generated_Source\PSoC4/GLCD_SPIM_UDB.c **** *  Configure which status bits trigger an interrupt event.
 340:.\Generated_Source\PSoC4/GLCD_SPIM_UDB.c **** *
 341:.\Generated_Source\PSoC4/GLCD_SPIM_UDB.c **** * Parameters:
 342:.\Generated_Source\PSoC4/GLCD_SPIM_UDB.c **** *  intSrc: An or'd combination of the desired status bit masks (defined in the
 343:.\Generated_Source\PSoC4/GLCD_SPIM_UDB.c **** *  header file).
 344:.\Generated_Source\PSoC4/GLCD_SPIM_UDB.c **** *
 345:.\Generated_Source\PSoC4/GLCD_SPIM_UDB.c **** * Return:
 346:.\Generated_Source\PSoC4/GLCD_SPIM_UDB.c **** *  None.
 347:.\Generated_Source\PSoC4/GLCD_SPIM_UDB.c **** *
 348:.\Generated_Source\PSoC4/GLCD_SPIM_UDB.c **** * Theory:
 349:.\Generated_Source\PSoC4/GLCD_SPIM_UDB.c **** *  Enables the output of specific status bits to the interrupt controller.
 350:.\Generated_Source\PSoC4/GLCD_SPIM_UDB.c **** *
 351:.\Generated_Source\PSoC4/GLCD_SPIM_UDB.c **** *******************************************************************************/
 352:.\Generated_Source\PSoC4/GLCD_SPIM_UDB.c **** void GLCD_SPIM_UDB_SetRxInterruptMode(uint8 intSrc) 
 353:.\Generated_Source\PSoC4/GLCD_SPIM_UDB.c **** {
 415              		.loc 1 353 0
 416              		.cfi_startproc
 417 0000 80B5     		push	{r7, lr}
 418              	.LCFI21:
 419              		.cfi_def_cfa_offset 8
 420              		.cfi_offset 7, -8
 421              		.cfi_offset 14, -4
 422 0002 82B0     		sub	sp, sp, #8
 423              	.LCFI22:
 424              		.cfi_def_cfa_offset 16
 425 0004 00AF     		add	r7, sp, #0
 426              	.LCFI23:
 427              		.cfi_def_cfa_register 7
 428 0006 021C     		mov	r2, r0
 429 0008 FB1D     		add	r3, r7, #7
 430 000a 1A70     		strb	r2, [r3]
 354:.\Generated_Source\PSoC4/GLCD_SPIM_UDB.c ****     GLCD_SPIM_UDB_RX_STATUS_MASK_REG  = intSrc;
 431              		.loc 1 354 0
 432 000c 034B     		ldr	r3, .L22
 433 000e FA1D     		add	r2, r7, #7
 434 0010 1278     		ldrb	r2, [r2]
 435 0012 1A70     		strb	r2, [r3]
 355:.\Generated_Source\PSoC4/GLCD_SPIM_UDB.c **** }
 436              		.loc 1 355 0
 437 0014 BD46     		mov	sp, r7
 438 0016 02B0     		add	sp, sp, #8
 439              		@ sp needed for prologue
 440 0018 80BD     		pop	{r7, pc}
 441              	.L23:
 442 001a C046     		.align	2
 443              	.L22:
ARM GAS  C:\Users\Colin\AppData\Local\Temp\ccYoaoge.s 			page 15


 444 001c 80000F40 		.word	1074724992
 445              		.cfi_endproc
 446              	.LFE9:
 447              		.size	GLCD_SPIM_UDB_SetRxInterruptMode, .-GLCD_SPIM_UDB_SetRxInterruptMode
 448              		.section	.text.GLCD_SPIM_UDB_ReadTxStatus,"ax",%progbits
 449              		.align	2
 450              		.global	GLCD_SPIM_UDB_ReadTxStatus
 451              		.code	16
 452              		.thumb_func
 453              		.type	GLCD_SPIM_UDB_ReadTxStatus, %function
 454              	GLCD_SPIM_UDB_ReadTxStatus:
 455              	.LFB10:
 356:.\Generated_Source\PSoC4/GLCD_SPIM_UDB.c **** 
 357:.\Generated_Source\PSoC4/GLCD_SPIM_UDB.c **** 
 358:.\Generated_Source\PSoC4/GLCD_SPIM_UDB.c **** /*******************************************************************************
 359:.\Generated_Source\PSoC4/GLCD_SPIM_UDB.c **** * Function Name: GLCD_SPIM_UDB_ReadTxStatus
 360:.\Generated_Source\PSoC4/GLCD_SPIM_UDB.c **** ********************************************************************************
 361:.\Generated_Source\PSoC4/GLCD_SPIM_UDB.c **** *
 362:.\Generated_Source\PSoC4/GLCD_SPIM_UDB.c **** * Summary:
 363:.\Generated_Source\PSoC4/GLCD_SPIM_UDB.c **** *  Read the Tx status register for the component.
 364:.\Generated_Source\PSoC4/GLCD_SPIM_UDB.c **** *
 365:.\Generated_Source\PSoC4/GLCD_SPIM_UDB.c **** * Parameters:
 366:.\Generated_Source\PSoC4/GLCD_SPIM_UDB.c **** *  None.
 367:.\Generated_Source\PSoC4/GLCD_SPIM_UDB.c **** *
 368:.\Generated_Source\PSoC4/GLCD_SPIM_UDB.c **** * Return:
 369:.\Generated_Source\PSoC4/GLCD_SPIM_UDB.c **** *  Contents of the Tx status register.
 370:.\Generated_Source\PSoC4/GLCD_SPIM_UDB.c **** *
 371:.\Generated_Source\PSoC4/GLCD_SPIM_UDB.c **** * Global variables:
 372:.\Generated_Source\PSoC4/GLCD_SPIM_UDB.c **** *  GLCD_SPIM_UDB_swStatusTx - used to store in software status register,
 373:.\Generated_Source\PSoC4/GLCD_SPIM_UDB.c **** *  modified every function call - resets to zero.
 374:.\Generated_Source\PSoC4/GLCD_SPIM_UDB.c **** *
 375:.\Generated_Source\PSoC4/GLCD_SPIM_UDB.c **** * Theory:
 376:.\Generated_Source\PSoC4/GLCD_SPIM_UDB.c **** *  Allows the user and the API to read the Tx status register for error
 377:.\Generated_Source\PSoC4/GLCD_SPIM_UDB.c **** *  detection and flow control.
 378:.\Generated_Source\PSoC4/GLCD_SPIM_UDB.c **** *
 379:.\Generated_Source\PSoC4/GLCD_SPIM_UDB.c **** * Side Effects:
 380:.\Generated_Source\PSoC4/GLCD_SPIM_UDB.c **** *  Clear Tx status register of the component.
 381:.\Generated_Source\PSoC4/GLCD_SPIM_UDB.c **** *
 382:.\Generated_Source\PSoC4/GLCD_SPIM_UDB.c **** * Reentrant:
 383:.\Generated_Source\PSoC4/GLCD_SPIM_UDB.c **** *  No.
 384:.\Generated_Source\PSoC4/GLCD_SPIM_UDB.c **** *
 385:.\Generated_Source\PSoC4/GLCD_SPIM_UDB.c **** *******************************************************************************/
 386:.\Generated_Source\PSoC4/GLCD_SPIM_UDB.c **** uint8 GLCD_SPIM_UDB_ReadTxStatus(void) 
 387:.\Generated_Source\PSoC4/GLCD_SPIM_UDB.c **** {
 456              		.loc 1 387 0
 457              		.cfi_startproc
 458 0000 80B5     		push	{r7, lr}
 459              	.LCFI24:
 460              		.cfi_def_cfa_offset 8
 461              		.cfi_offset 7, -8
 462              		.cfi_offset 14, -4
 463 0002 82B0     		sub	sp, sp, #8
 464              	.LCFI25:
 465              		.cfi_def_cfa_offset 16
 466 0004 00AF     		add	r7, sp, #0
 467              	.LCFI26:
 468              		.cfi_def_cfa_register 7
ARM GAS  C:\Users\Colin\AppData\Local\Temp\ccYoaoge.s 			page 16


 388:.\Generated_Source\PSoC4/GLCD_SPIM_UDB.c ****     uint8 tmpStatus;
 389:.\Generated_Source\PSoC4/GLCD_SPIM_UDB.c **** 
 390:.\Generated_Source\PSoC4/GLCD_SPIM_UDB.c ****     #if(GLCD_SPIM_UDB_TX_SOFTWARE_BUF_ENABLED)
 391:.\Generated_Source\PSoC4/GLCD_SPIM_UDB.c ****         /* Disable TX interrupt to protect global veriables */
 392:.\Generated_Source\PSoC4/GLCD_SPIM_UDB.c ****         GLCD_SPIM_UDB_DisableTxInt();
 393:.\Generated_Source\PSoC4/GLCD_SPIM_UDB.c **** 
 394:.\Generated_Source\PSoC4/GLCD_SPIM_UDB.c ****         tmpStatus = GLCD_SPIM_UDB_GET_STATUS_TX(GLCD_SPIM_UDB_swStatusTx);
 395:.\Generated_Source\PSoC4/GLCD_SPIM_UDB.c ****         GLCD_SPIM_UDB_swStatusTx = 0u;
 396:.\Generated_Source\PSoC4/GLCD_SPIM_UDB.c **** 
 397:.\Generated_Source\PSoC4/GLCD_SPIM_UDB.c ****         GLCD_SPIM_UDB_EnableTxInt();
 398:.\Generated_Source\PSoC4/GLCD_SPIM_UDB.c **** 
 399:.\Generated_Source\PSoC4/GLCD_SPIM_UDB.c ****     #else
 400:.\Generated_Source\PSoC4/GLCD_SPIM_UDB.c **** 
 401:.\Generated_Source\PSoC4/GLCD_SPIM_UDB.c ****         tmpStatus = GLCD_SPIM_UDB_TX_STATUS_REG;
 469              		.loc 1 401 0
 470 0006 054A     		ldr	r2, .L26
 471 0008 FB1D     		add	r3, r7, #7
 472 000a 1278     		ldrb	r2, [r2]
 473 000c 1A70     		strb	r2, [r3]
 402:.\Generated_Source\PSoC4/GLCD_SPIM_UDB.c **** 
 403:.\Generated_Source\PSoC4/GLCD_SPIM_UDB.c ****     #endif /* (GLCD_SPIM_UDB_TX_SOFTWARE_BUF_ENABLED) */
 404:.\Generated_Source\PSoC4/GLCD_SPIM_UDB.c **** 
 405:.\Generated_Source\PSoC4/GLCD_SPIM_UDB.c ****     return(tmpStatus);
 474              		.loc 1 405 0
 475 000e FB1D     		add	r3, r7, #7
 476 0010 1B78     		ldrb	r3, [r3]
 406:.\Generated_Source\PSoC4/GLCD_SPIM_UDB.c **** }
 477              		.loc 1 406 0
 478 0012 181C     		mov	r0, r3
 479 0014 BD46     		mov	sp, r7
 480 0016 02B0     		add	sp, sp, #8
 481              		@ sp needed for prologue
 482 0018 80BD     		pop	{r7, pc}
 483              	.L27:
 484 001a C046     		.align	2
 485              	.L26:
 486 001c 62000F40 		.word	1074724962
 487              		.cfi_endproc
 488              	.LFE10:
 489              		.size	GLCD_SPIM_UDB_ReadTxStatus, .-GLCD_SPIM_UDB_ReadTxStatus
 490              		.section	.text.GLCD_SPIM_UDB_ReadRxStatus,"ax",%progbits
 491              		.align	2
 492              		.global	GLCD_SPIM_UDB_ReadRxStatus
 493              		.code	16
 494              		.thumb_func
 495              		.type	GLCD_SPIM_UDB_ReadRxStatus, %function
 496              	GLCD_SPIM_UDB_ReadRxStatus:
 497              	.LFB11:
 407:.\Generated_Source\PSoC4/GLCD_SPIM_UDB.c **** 
 408:.\Generated_Source\PSoC4/GLCD_SPIM_UDB.c **** 
 409:.\Generated_Source\PSoC4/GLCD_SPIM_UDB.c **** /*******************************************************************************
 410:.\Generated_Source\PSoC4/GLCD_SPIM_UDB.c **** * Function Name: GLCD_SPIM_UDB_ReadRxStatus
 411:.\Generated_Source\PSoC4/GLCD_SPIM_UDB.c **** ********************************************************************************
 412:.\Generated_Source\PSoC4/GLCD_SPIM_UDB.c **** *
 413:.\Generated_Source\PSoC4/GLCD_SPIM_UDB.c **** * Summary:
 414:.\Generated_Source\PSoC4/GLCD_SPIM_UDB.c **** *  Read the Rx status register for the component.
 415:.\Generated_Source\PSoC4/GLCD_SPIM_UDB.c **** *
ARM GAS  C:\Users\Colin\AppData\Local\Temp\ccYoaoge.s 			page 17


 416:.\Generated_Source\PSoC4/GLCD_SPIM_UDB.c **** * Parameters:
 417:.\Generated_Source\PSoC4/GLCD_SPIM_UDB.c **** *  None.
 418:.\Generated_Source\PSoC4/GLCD_SPIM_UDB.c **** *
 419:.\Generated_Source\PSoC4/GLCD_SPIM_UDB.c **** * Return:
 420:.\Generated_Source\PSoC4/GLCD_SPIM_UDB.c **** *  Contents of the Rx status register.
 421:.\Generated_Source\PSoC4/GLCD_SPIM_UDB.c **** *
 422:.\Generated_Source\PSoC4/GLCD_SPIM_UDB.c **** * Global variables:
 423:.\Generated_Source\PSoC4/GLCD_SPIM_UDB.c **** *  GLCD_SPIM_UDB_swStatusRx - used to store in software Rx status register,
 424:.\Generated_Source\PSoC4/GLCD_SPIM_UDB.c **** *  modified every function call - resets to zero.
 425:.\Generated_Source\PSoC4/GLCD_SPIM_UDB.c **** *
 426:.\Generated_Source\PSoC4/GLCD_SPIM_UDB.c **** * Theory:
 427:.\Generated_Source\PSoC4/GLCD_SPIM_UDB.c **** *  Allows the user and the API to read the Rx status register for error
 428:.\Generated_Source\PSoC4/GLCD_SPIM_UDB.c **** *  detection and flow control.
 429:.\Generated_Source\PSoC4/GLCD_SPIM_UDB.c **** *
 430:.\Generated_Source\PSoC4/GLCD_SPIM_UDB.c **** * Side Effects:
 431:.\Generated_Source\PSoC4/GLCD_SPIM_UDB.c **** *  Clear Rx status register of the component.
 432:.\Generated_Source\PSoC4/GLCD_SPIM_UDB.c **** *
 433:.\Generated_Source\PSoC4/GLCD_SPIM_UDB.c **** * Reentrant:
 434:.\Generated_Source\PSoC4/GLCD_SPIM_UDB.c **** *  No.
 435:.\Generated_Source\PSoC4/GLCD_SPIM_UDB.c **** *
 436:.\Generated_Source\PSoC4/GLCD_SPIM_UDB.c **** *******************************************************************************/
 437:.\Generated_Source\PSoC4/GLCD_SPIM_UDB.c **** uint8 GLCD_SPIM_UDB_ReadRxStatus(void) 
 438:.\Generated_Source\PSoC4/GLCD_SPIM_UDB.c **** {
 498              		.loc 1 438 0
 499              		.cfi_startproc
 500 0000 80B5     		push	{r7, lr}
 501              	.LCFI27:
 502              		.cfi_def_cfa_offset 8
 503              		.cfi_offset 7, -8
 504              		.cfi_offset 14, -4
 505 0002 82B0     		sub	sp, sp, #8
 506              	.LCFI28:
 507              		.cfi_def_cfa_offset 16
 508 0004 00AF     		add	r7, sp, #0
 509              	.LCFI29:
 510              		.cfi_def_cfa_register 7
 439:.\Generated_Source\PSoC4/GLCD_SPIM_UDB.c ****     uint8 tmpStatus;
 440:.\Generated_Source\PSoC4/GLCD_SPIM_UDB.c **** 
 441:.\Generated_Source\PSoC4/GLCD_SPIM_UDB.c ****     #if(GLCD_SPIM_UDB_RX_SOFTWARE_BUF_ENABLED)
 442:.\Generated_Source\PSoC4/GLCD_SPIM_UDB.c ****         /* Disable RX interrupt to protect global veriables */
 443:.\Generated_Source\PSoC4/GLCD_SPIM_UDB.c ****         GLCD_SPIM_UDB_DisableRxInt();
 444:.\Generated_Source\PSoC4/GLCD_SPIM_UDB.c **** 
 445:.\Generated_Source\PSoC4/GLCD_SPIM_UDB.c ****         tmpStatus = GLCD_SPIM_UDB_GET_STATUS_RX(GLCD_SPIM_UDB_swStatusRx);
 446:.\Generated_Source\PSoC4/GLCD_SPIM_UDB.c ****         GLCD_SPIM_UDB_swStatusRx = 0u;
 447:.\Generated_Source\PSoC4/GLCD_SPIM_UDB.c **** 
 448:.\Generated_Source\PSoC4/GLCD_SPIM_UDB.c ****         GLCD_SPIM_UDB_EnableRxInt();
 449:.\Generated_Source\PSoC4/GLCD_SPIM_UDB.c **** 
 450:.\Generated_Source\PSoC4/GLCD_SPIM_UDB.c ****     #else
 451:.\Generated_Source\PSoC4/GLCD_SPIM_UDB.c **** 
 452:.\Generated_Source\PSoC4/GLCD_SPIM_UDB.c ****         tmpStatus = GLCD_SPIM_UDB_RX_STATUS_REG;
 511              		.loc 1 452 0
 512 0006 054A     		ldr	r2, .L30
 513 0008 FB1D     		add	r3, r7, #7
 514 000a 1278     		ldrb	r2, [r2]
 515 000c 1A70     		strb	r2, [r3]
 453:.\Generated_Source\PSoC4/GLCD_SPIM_UDB.c **** 
 454:.\Generated_Source\PSoC4/GLCD_SPIM_UDB.c ****     #endif /* (GLCD_SPIM_UDB_RX_SOFTWARE_BUF_ENABLED) */
ARM GAS  C:\Users\Colin\AppData\Local\Temp\ccYoaoge.s 			page 18


 455:.\Generated_Source\PSoC4/GLCD_SPIM_UDB.c **** 
 456:.\Generated_Source\PSoC4/GLCD_SPIM_UDB.c ****     return(tmpStatus);
 516              		.loc 1 456 0
 517 000e FB1D     		add	r3, r7, #7
 518 0010 1B78     		ldrb	r3, [r3]
 457:.\Generated_Source\PSoC4/GLCD_SPIM_UDB.c **** }
 519              		.loc 1 457 0
 520 0012 181C     		mov	r0, r3
 521 0014 BD46     		mov	sp, r7
 522 0016 02B0     		add	sp, sp, #8
 523              		@ sp needed for prologue
 524 0018 80BD     		pop	{r7, pc}
 525              	.L31:
 526 001a C046     		.align	2
 527              	.L30:
 528 001c 60000F40 		.word	1074724960
 529              		.cfi_endproc
 530              	.LFE11:
 531              		.size	GLCD_SPIM_UDB_ReadRxStatus, .-GLCD_SPIM_UDB_ReadRxStatus
 532              		.section	.text.GLCD_SPIM_UDB_WriteTxData,"ax",%progbits
 533              		.align	2
 534              		.global	GLCD_SPIM_UDB_WriteTxData
 535              		.code	16
 536              		.thumb_func
 537              		.type	GLCD_SPIM_UDB_WriteTxData, %function
 538              	GLCD_SPIM_UDB_WriteTxData:
 539              	.LFB12:
 458:.\Generated_Source\PSoC4/GLCD_SPIM_UDB.c **** 
 459:.\Generated_Source\PSoC4/GLCD_SPIM_UDB.c **** 
 460:.\Generated_Source\PSoC4/GLCD_SPIM_UDB.c **** /*******************************************************************************
 461:.\Generated_Source\PSoC4/GLCD_SPIM_UDB.c **** * Function Name: GLCD_SPIM_UDB_WriteTxData
 462:.\Generated_Source\PSoC4/GLCD_SPIM_UDB.c **** ********************************************************************************
 463:.\Generated_Source\PSoC4/GLCD_SPIM_UDB.c **** *
 464:.\Generated_Source\PSoC4/GLCD_SPIM_UDB.c **** * Summary:
 465:.\Generated_Source\PSoC4/GLCD_SPIM_UDB.c **** *  Write a byte of data to be sent across the SPI.
 466:.\Generated_Source\PSoC4/GLCD_SPIM_UDB.c **** *
 467:.\Generated_Source\PSoC4/GLCD_SPIM_UDB.c **** * Parameters:
 468:.\Generated_Source\PSoC4/GLCD_SPIM_UDB.c **** *  txDataByte: The data value to send across the SPI.
 469:.\Generated_Source\PSoC4/GLCD_SPIM_UDB.c **** *
 470:.\Generated_Source\PSoC4/GLCD_SPIM_UDB.c **** * Return:
 471:.\Generated_Source\PSoC4/GLCD_SPIM_UDB.c **** *  None.
 472:.\Generated_Source\PSoC4/GLCD_SPIM_UDB.c **** *
 473:.\Generated_Source\PSoC4/GLCD_SPIM_UDB.c **** * Global variables:
 474:.\Generated_Source\PSoC4/GLCD_SPIM_UDB.c **** *  GLCD_SPIM_UDB_txBufferWrite - used for the account of the bytes which
 475:.\Generated_Source\PSoC4/GLCD_SPIM_UDB.c **** *  have been written down in the TX software buffer, modified every function
 476:.\Generated_Source\PSoC4/GLCD_SPIM_UDB.c **** *  call if TX Software Buffer is used.
 477:.\Generated_Source\PSoC4/GLCD_SPIM_UDB.c **** *  GLCD_SPIM_UDB_txBufferRead - used for the account of the bytes which
 478:.\Generated_Source\PSoC4/GLCD_SPIM_UDB.c **** *  have been read from the TX software buffer.
 479:.\Generated_Source\PSoC4/GLCD_SPIM_UDB.c **** *  GLCD_SPIM_UDB_txBuffer[GLCD_SPIM_UDB_TX_BUFFER_SIZE] - used to store
 480:.\Generated_Source\PSoC4/GLCD_SPIM_UDB.c **** *  data to sending, modified every function call if TX Software Buffer is used.
 481:.\Generated_Source\PSoC4/GLCD_SPIM_UDB.c **** *
 482:.\Generated_Source\PSoC4/GLCD_SPIM_UDB.c **** * Theory:
 483:.\Generated_Source\PSoC4/GLCD_SPIM_UDB.c **** *  Allows the user to transmit any byte of data in a single transfer.
 484:.\Generated_Source\PSoC4/GLCD_SPIM_UDB.c **** *
 485:.\Generated_Source\PSoC4/GLCD_SPIM_UDB.c **** * Side Effects:
 486:.\Generated_Source\PSoC4/GLCD_SPIM_UDB.c **** *  If this function is called again before the previous byte is finished then
 487:.\Generated_Source\PSoC4/GLCD_SPIM_UDB.c **** *  the next byte will be appended to the transfer with no time between
ARM GAS  C:\Users\Colin\AppData\Local\Temp\ccYoaoge.s 			page 19


 488:.\Generated_Source\PSoC4/GLCD_SPIM_UDB.c **** *  the byte transfers. Clear Tx status register of the component.
 489:.\Generated_Source\PSoC4/GLCD_SPIM_UDB.c **** *
 490:.\Generated_Source\PSoC4/GLCD_SPIM_UDB.c **** * Reentrant:
 491:.\Generated_Source\PSoC4/GLCD_SPIM_UDB.c **** *  No.
 492:.\Generated_Source\PSoC4/GLCD_SPIM_UDB.c **** *
 493:.\Generated_Source\PSoC4/GLCD_SPIM_UDB.c **** *******************************************************************************/
 494:.\Generated_Source\PSoC4/GLCD_SPIM_UDB.c **** void GLCD_SPIM_UDB_WriteTxData(uint16 txData) 
 495:.\Generated_Source\PSoC4/GLCD_SPIM_UDB.c **** {
 540              		.loc 1 495 0
 541              		.cfi_startproc
 542 0000 80B5     		push	{r7, lr}
 543              	.LCFI30:
 544              		.cfi_def_cfa_offset 8
 545              		.cfi_offset 7, -8
 546              		.cfi_offset 14, -4
 547 0002 82B0     		sub	sp, sp, #8
 548              	.LCFI31:
 549              		.cfi_def_cfa_offset 16
 550 0004 00AF     		add	r7, sp, #0
 551              	.LCFI32:
 552              		.cfi_def_cfa_register 7
 553 0006 021C     		mov	r2, r0
 554 0008 BB1D     		add	r3, r7, #6
 555 000a 1A80     		strh	r2, [r3]
 496:.\Generated_Source\PSoC4/GLCD_SPIM_UDB.c ****     #if(GLCD_SPIM_UDB_TX_SOFTWARE_BUF_ENABLED)
 497:.\Generated_Source\PSoC4/GLCD_SPIM_UDB.c **** 
 498:.\Generated_Source\PSoC4/GLCD_SPIM_UDB.c ****         uint8 tempStatus;
 499:.\Generated_Source\PSoC4/GLCD_SPIM_UDB.c ****         uint8 tmpTxBufferRead;
 500:.\Generated_Source\PSoC4/GLCD_SPIM_UDB.c **** 
 501:.\Generated_Source\PSoC4/GLCD_SPIM_UDB.c ****         /* Block if TX buffer is FULL: don't overwrite */
 502:.\Generated_Source\PSoC4/GLCD_SPIM_UDB.c ****         do
 503:.\Generated_Source\PSoC4/GLCD_SPIM_UDB.c ****         {
 504:.\Generated_Source\PSoC4/GLCD_SPIM_UDB.c ****             tmpTxBufferRead = GLCD_SPIM_UDB_txBufferRead;
 505:.\Generated_Source\PSoC4/GLCD_SPIM_UDB.c ****             if(0u == tmpTxBufferRead)
 506:.\Generated_Source\PSoC4/GLCD_SPIM_UDB.c ****             {
 507:.\Generated_Source\PSoC4/GLCD_SPIM_UDB.c ****                 tmpTxBufferRead = (GLCD_SPIM_UDB_TX_BUFFER_SIZE - 1u);
 508:.\Generated_Source\PSoC4/GLCD_SPIM_UDB.c ****             }
 509:.\Generated_Source\PSoC4/GLCD_SPIM_UDB.c ****             else
 510:.\Generated_Source\PSoC4/GLCD_SPIM_UDB.c ****             {
 511:.\Generated_Source\PSoC4/GLCD_SPIM_UDB.c ****                 tmpTxBufferRead--;
 512:.\Generated_Source\PSoC4/GLCD_SPIM_UDB.c ****             }
 513:.\Generated_Source\PSoC4/GLCD_SPIM_UDB.c **** 
 514:.\Generated_Source\PSoC4/GLCD_SPIM_UDB.c ****         }while(tmpTxBufferRead == GLCD_SPIM_UDB_txBufferWrite);
 515:.\Generated_Source\PSoC4/GLCD_SPIM_UDB.c **** 
 516:.\Generated_Source\PSoC4/GLCD_SPIM_UDB.c ****         /* Disable TX interrupt to protect global veriables */
 517:.\Generated_Source\PSoC4/GLCD_SPIM_UDB.c ****         GLCD_SPIM_UDB_DisableTxInt();
 518:.\Generated_Source\PSoC4/GLCD_SPIM_UDB.c **** 
 519:.\Generated_Source\PSoC4/GLCD_SPIM_UDB.c ****         tempStatus = GLCD_SPIM_UDB_GET_STATUS_TX(GLCD_SPIM_UDB_swStatusTx);
 520:.\Generated_Source\PSoC4/GLCD_SPIM_UDB.c ****         GLCD_SPIM_UDB_swStatusTx = tempStatus;
 521:.\Generated_Source\PSoC4/GLCD_SPIM_UDB.c **** 
 522:.\Generated_Source\PSoC4/GLCD_SPIM_UDB.c **** 
 523:.\Generated_Source\PSoC4/GLCD_SPIM_UDB.c ****         if((GLCD_SPIM_UDB_txBufferRead == GLCD_SPIM_UDB_txBufferWrite) &&
 524:.\Generated_Source\PSoC4/GLCD_SPIM_UDB.c ****            (0u != (GLCD_SPIM_UDB_swStatusTx & GLCD_SPIM_UDB_STS_TX_FIFO_NOT_FULL)))
 525:.\Generated_Source\PSoC4/GLCD_SPIM_UDB.c ****         {
 526:.\Generated_Source\PSoC4/GLCD_SPIM_UDB.c ****             /* Add directly to the TX FIFO */
 527:.\Generated_Source\PSoC4/GLCD_SPIM_UDB.c ****             CY_SET_REG16(GLCD_SPIM_UDB_TXDATA_PTR, txData);
 528:.\Generated_Source\PSoC4/GLCD_SPIM_UDB.c ****         }
ARM GAS  C:\Users\Colin\AppData\Local\Temp\ccYoaoge.s 			page 20


 529:.\Generated_Source\PSoC4/GLCD_SPIM_UDB.c ****         else
 530:.\Generated_Source\PSoC4/GLCD_SPIM_UDB.c ****         {
 531:.\Generated_Source\PSoC4/GLCD_SPIM_UDB.c ****             /* Add to the TX software buffer */
 532:.\Generated_Source\PSoC4/GLCD_SPIM_UDB.c ****             GLCD_SPIM_UDB_txBufferWrite++;
 533:.\Generated_Source\PSoC4/GLCD_SPIM_UDB.c ****             if(GLCD_SPIM_UDB_txBufferWrite >= GLCD_SPIM_UDB_TX_BUFFER_SIZE)
 534:.\Generated_Source\PSoC4/GLCD_SPIM_UDB.c ****             {
 535:.\Generated_Source\PSoC4/GLCD_SPIM_UDB.c ****                 GLCD_SPIM_UDB_txBufferWrite = 0u;
 536:.\Generated_Source\PSoC4/GLCD_SPIM_UDB.c ****             }
 537:.\Generated_Source\PSoC4/GLCD_SPIM_UDB.c **** 
 538:.\Generated_Source\PSoC4/GLCD_SPIM_UDB.c ****             if(GLCD_SPIM_UDB_txBufferWrite == GLCD_SPIM_UDB_txBufferRead)
 539:.\Generated_Source\PSoC4/GLCD_SPIM_UDB.c ****             {
 540:.\Generated_Source\PSoC4/GLCD_SPIM_UDB.c ****                 GLCD_SPIM_UDB_txBufferRead++;
 541:.\Generated_Source\PSoC4/GLCD_SPIM_UDB.c ****                 if(GLCD_SPIM_UDB_txBufferRead >= GLCD_SPIM_UDB_TX_BUFFER_SIZE)
 542:.\Generated_Source\PSoC4/GLCD_SPIM_UDB.c ****                 {
 543:.\Generated_Source\PSoC4/GLCD_SPIM_UDB.c ****                     GLCD_SPIM_UDB_txBufferRead = 0u;
 544:.\Generated_Source\PSoC4/GLCD_SPIM_UDB.c ****                 }
 545:.\Generated_Source\PSoC4/GLCD_SPIM_UDB.c ****                 GLCD_SPIM_UDB_txBufferFull = 1u;
 546:.\Generated_Source\PSoC4/GLCD_SPIM_UDB.c ****             }
 547:.\Generated_Source\PSoC4/GLCD_SPIM_UDB.c **** 
 548:.\Generated_Source\PSoC4/GLCD_SPIM_UDB.c ****             GLCD_SPIM_UDB_txBuffer[GLCD_SPIM_UDB_txBufferWrite] = txData;
 549:.\Generated_Source\PSoC4/GLCD_SPIM_UDB.c **** 
 550:.\Generated_Source\PSoC4/GLCD_SPIM_UDB.c ****             GLCD_SPIM_UDB_TX_STATUS_MASK_REG |= GLCD_SPIM_UDB_STS_TX_FIFO_NOT_FULL;
 551:.\Generated_Source\PSoC4/GLCD_SPIM_UDB.c ****         }
 552:.\Generated_Source\PSoC4/GLCD_SPIM_UDB.c **** 
 553:.\Generated_Source\PSoC4/GLCD_SPIM_UDB.c ****         GLCD_SPIM_UDB_EnableTxInt();
 554:.\Generated_Source\PSoC4/GLCD_SPIM_UDB.c **** 
 555:.\Generated_Source\PSoC4/GLCD_SPIM_UDB.c ****     #else
 556:.\Generated_Source\PSoC4/GLCD_SPIM_UDB.c **** 
 557:.\Generated_Source\PSoC4/GLCD_SPIM_UDB.c ****         while(0u == (GLCD_SPIM_UDB_TX_STATUS_REG & GLCD_SPIM_UDB_STS_TX_FIFO_NOT_FULL))
 556              		.loc 1 557 0
 557 000c C046     		mov	r8, r8
 558              	.L33:
 559              		.loc 1 557 0 is_stmt 0 discriminator 1
 560 000e 074B     		ldr	r3, .L34
 561 0010 1B78     		ldrb	r3, [r3]
 562 0012 DBB2     		uxtb	r3, r3
 563 0014 1A1C     		mov	r2, r3
 564 0016 0423     		mov	r3, #4
 565 0018 1340     		and	r3, r2
 566 001a F8D0     		beq	.L33
 558:.\Generated_Source\PSoC4/GLCD_SPIM_UDB.c ****         {
 559:.\Generated_Source\PSoC4/GLCD_SPIM_UDB.c ****             ; /* Wait for room in FIFO */
 560:.\Generated_Source\PSoC4/GLCD_SPIM_UDB.c ****         }
 561:.\Generated_Source\PSoC4/GLCD_SPIM_UDB.c **** 
 562:.\Generated_Source\PSoC4/GLCD_SPIM_UDB.c ****         /* Put byte in TX FIFO */
 563:.\Generated_Source\PSoC4/GLCD_SPIM_UDB.c ****         CY_SET_REG16(GLCD_SPIM_UDB_TXDATA_PTR, txData);
 567              		.loc 1 563 0 is_stmt 1
 568 001c 044B     		ldr	r3, .L34+4
 569 001e BA1D     		add	r2, r7, #6
 570 0020 1288     		ldrh	r2, [r2]
 571 0022 1A80     		strh	r2, [r3]
 564:.\Generated_Source\PSoC4/GLCD_SPIM_UDB.c **** 
 565:.\Generated_Source\PSoC4/GLCD_SPIM_UDB.c ****     #endif /* (GLCD_SPIM_UDB_TX_SOFTWARE_BUF_ENABLED) */
 566:.\Generated_Source\PSoC4/GLCD_SPIM_UDB.c **** }
 572              		.loc 1 566 0
 573 0024 BD46     		mov	sp, r7
 574 0026 02B0     		add	sp, sp, #8
ARM GAS  C:\Users\Colin\AppData\Local\Temp\ccYoaoge.s 			page 21


 575              		@ sp needed for prologue
 576 0028 80BD     		pop	{r7, pc}
 577              	.L35:
 578 002a C046     		.align	2
 579              	.L34:
 580 002c 62000F40 		.word	1074724962
 581 0030 84100F40 		.word	1074729092
 582              		.cfi_endproc
 583              	.LFE12:
 584              		.size	GLCD_SPIM_UDB_WriteTxData, .-GLCD_SPIM_UDB_WriteTxData
 585              		.section	.text.GLCD_SPIM_UDB_ReadRxData,"ax",%progbits
 586              		.align	2
 587              		.global	GLCD_SPIM_UDB_ReadRxData
 588              		.code	16
 589              		.thumb_func
 590              		.type	GLCD_SPIM_UDB_ReadRxData, %function
 591              	GLCD_SPIM_UDB_ReadRxData:
 592              	.LFB13:
 567:.\Generated_Source\PSoC4/GLCD_SPIM_UDB.c **** 
 568:.\Generated_Source\PSoC4/GLCD_SPIM_UDB.c **** 
 569:.\Generated_Source\PSoC4/GLCD_SPIM_UDB.c **** /*******************************************************************************
 570:.\Generated_Source\PSoC4/GLCD_SPIM_UDB.c **** * Function Name: GLCD_SPIM_UDB_ReadRxData
 571:.\Generated_Source\PSoC4/GLCD_SPIM_UDB.c **** ********************************************************************************
 572:.\Generated_Source\PSoC4/GLCD_SPIM_UDB.c **** *
 573:.\Generated_Source\PSoC4/GLCD_SPIM_UDB.c **** * Summary:
 574:.\Generated_Source\PSoC4/GLCD_SPIM_UDB.c **** *  Read the next byte of data received across the SPI.
 575:.\Generated_Source\PSoC4/GLCD_SPIM_UDB.c **** *
 576:.\Generated_Source\PSoC4/GLCD_SPIM_UDB.c **** * Parameters:
 577:.\Generated_Source\PSoC4/GLCD_SPIM_UDB.c **** *  None.
 578:.\Generated_Source\PSoC4/GLCD_SPIM_UDB.c **** *
 579:.\Generated_Source\PSoC4/GLCD_SPIM_UDB.c **** * Return:
 580:.\Generated_Source\PSoC4/GLCD_SPIM_UDB.c **** *  The next byte of data read from the FIFO.
 581:.\Generated_Source\PSoC4/GLCD_SPIM_UDB.c **** *
 582:.\Generated_Source\PSoC4/GLCD_SPIM_UDB.c **** * Global variables:
 583:.\Generated_Source\PSoC4/GLCD_SPIM_UDB.c **** *  GLCD_SPIM_UDB_rxBufferWrite - used for the account of the bytes which
 584:.\Generated_Source\PSoC4/GLCD_SPIM_UDB.c **** *  have been written down in the RX software buffer.
 585:.\Generated_Source\PSoC4/GLCD_SPIM_UDB.c **** *  GLCD_SPIM_UDB_rxBufferRead - used for the account of the bytes which
 586:.\Generated_Source\PSoC4/GLCD_SPIM_UDB.c **** *  have been read from the RX software buffer, modified every function
 587:.\Generated_Source\PSoC4/GLCD_SPIM_UDB.c **** *  call if RX Software Buffer is used.
 588:.\Generated_Source\PSoC4/GLCD_SPIM_UDB.c **** *  GLCD_SPIM_UDB_rxBuffer[GLCD_SPIM_UDB_RX_BUFFER_SIZE] - used to store
 589:.\Generated_Source\PSoC4/GLCD_SPIM_UDB.c **** *  received data.
 590:.\Generated_Source\PSoC4/GLCD_SPIM_UDB.c **** *
 591:.\Generated_Source\PSoC4/GLCD_SPIM_UDB.c **** * Theory:
 592:.\Generated_Source\PSoC4/GLCD_SPIM_UDB.c **** *  Allows the user to read a byte of data received.
 593:.\Generated_Source\PSoC4/GLCD_SPIM_UDB.c **** *
 594:.\Generated_Source\PSoC4/GLCD_SPIM_UDB.c **** * Side Effects:
 595:.\Generated_Source\PSoC4/GLCD_SPIM_UDB.c **** *  Will return invalid data if the FIFO is empty. The user should Call
 596:.\Generated_Source\PSoC4/GLCD_SPIM_UDB.c **** *  GetRxBufferSize() and if it returns a non-zero value then it is safe to call
 597:.\Generated_Source\PSoC4/GLCD_SPIM_UDB.c **** *  ReadByte() function.
 598:.\Generated_Source\PSoC4/GLCD_SPIM_UDB.c **** *
 599:.\Generated_Source\PSoC4/GLCD_SPIM_UDB.c **** * Reentrant:
 600:.\Generated_Source\PSoC4/GLCD_SPIM_UDB.c **** *  No.
 601:.\Generated_Source\PSoC4/GLCD_SPIM_UDB.c **** *
 602:.\Generated_Source\PSoC4/GLCD_SPIM_UDB.c **** *******************************************************************************/
 603:.\Generated_Source\PSoC4/GLCD_SPIM_UDB.c **** uint16 GLCD_SPIM_UDB_ReadRxData(void) 
 604:.\Generated_Source\PSoC4/GLCD_SPIM_UDB.c **** {
 593              		.loc 1 604 0
ARM GAS  C:\Users\Colin\AppData\Local\Temp\ccYoaoge.s 			page 22


 594              		.cfi_startproc
 595 0000 80B5     		push	{r7, lr}
 596              	.LCFI33:
 597              		.cfi_def_cfa_offset 8
 598              		.cfi_offset 7, -8
 599              		.cfi_offset 14, -4
 600 0002 82B0     		sub	sp, sp, #8
 601              	.LCFI34:
 602              		.cfi_def_cfa_offset 16
 603 0004 00AF     		add	r7, sp, #0
 604              	.LCFI35:
 605              		.cfi_def_cfa_register 7
 605:.\Generated_Source\PSoC4/GLCD_SPIM_UDB.c ****     uint16 rxData;
 606:.\Generated_Source\PSoC4/GLCD_SPIM_UDB.c **** 
 607:.\Generated_Source\PSoC4/GLCD_SPIM_UDB.c ****     #if(GLCD_SPIM_UDB_RX_SOFTWARE_BUF_ENABLED)
 608:.\Generated_Source\PSoC4/GLCD_SPIM_UDB.c **** 
 609:.\Generated_Source\PSoC4/GLCD_SPIM_UDB.c ****         /* Disable RX interrupt to protect global veriables */
 610:.\Generated_Source\PSoC4/GLCD_SPIM_UDB.c ****         GLCD_SPIM_UDB_DisableRxInt();
 611:.\Generated_Source\PSoC4/GLCD_SPIM_UDB.c **** 
 612:.\Generated_Source\PSoC4/GLCD_SPIM_UDB.c ****         if(GLCD_SPIM_UDB_rxBufferRead != GLCD_SPIM_UDB_rxBufferWrite)
 613:.\Generated_Source\PSoC4/GLCD_SPIM_UDB.c ****         {
 614:.\Generated_Source\PSoC4/GLCD_SPIM_UDB.c ****             if(0u == GLCD_SPIM_UDB_rxBufferFull)
 615:.\Generated_Source\PSoC4/GLCD_SPIM_UDB.c ****             {
 616:.\Generated_Source\PSoC4/GLCD_SPIM_UDB.c ****                 GLCD_SPIM_UDB_rxBufferRead++;
 617:.\Generated_Source\PSoC4/GLCD_SPIM_UDB.c ****                 if(GLCD_SPIM_UDB_rxBufferRead >= GLCD_SPIM_UDB_RX_BUFFER_SIZE)
 618:.\Generated_Source\PSoC4/GLCD_SPIM_UDB.c ****                 {
 619:.\Generated_Source\PSoC4/GLCD_SPIM_UDB.c ****                     GLCD_SPIM_UDB_rxBufferRead = 0u;
 620:.\Generated_Source\PSoC4/GLCD_SPIM_UDB.c ****                 }
 621:.\Generated_Source\PSoC4/GLCD_SPIM_UDB.c ****             }
 622:.\Generated_Source\PSoC4/GLCD_SPIM_UDB.c ****             else
 623:.\Generated_Source\PSoC4/GLCD_SPIM_UDB.c ****             {
 624:.\Generated_Source\PSoC4/GLCD_SPIM_UDB.c ****                 GLCD_SPIM_UDB_rxBufferFull = 0u;
 625:.\Generated_Source\PSoC4/GLCD_SPIM_UDB.c ****             }
 626:.\Generated_Source\PSoC4/GLCD_SPIM_UDB.c ****         }
 627:.\Generated_Source\PSoC4/GLCD_SPIM_UDB.c **** 
 628:.\Generated_Source\PSoC4/GLCD_SPIM_UDB.c ****         rxData = GLCD_SPIM_UDB_rxBuffer[GLCD_SPIM_UDB_rxBufferRead];
 629:.\Generated_Source\PSoC4/GLCD_SPIM_UDB.c **** 
 630:.\Generated_Source\PSoC4/GLCD_SPIM_UDB.c ****         GLCD_SPIM_UDB_EnableRxInt();
 631:.\Generated_Source\PSoC4/GLCD_SPIM_UDB.c **** 
 632:.\Generated_Source\PSoC4/GLCD_SPIM_UDB.c ****     #else
 633:.\Generated_Source\PSoC4/GLCD_SPIM_UDB.c **** 
 634:.\Generated_Source\PSoC4/GLCD_SPIM_UDB.c ****         rxData = CY_GET_REG16(GLCD_SPIM_UDB_RXDATA_PTR);
 606              		.loc 1 634 0
 607 0006 054A     		ldr	r2, .L38
 608 0008 BB1D     		add	r3, r7, #6
 609 000a 1288     		ldrh	r2, [r2]
 610 000c 1A80     		strh	r2, [r3]
 635:.\Generated_Source\PSoC4/GLCD_SPIM_UDB.c **** 
 636:.\Generated_Source\PSoC4/GLCD_SPIM_UDB.c ****     #endif /* (GLCD_SPIM_UDB_RX_SOFTWARE_BUF_ENABLED) */
 637:.\Generated_Source\PSoC4/GLCD_SPIM_UDB.c **** 
 638:.\Generated_Source\PSoC4/GLCD_SPIM_UDB.c ****     return(rxData);
 611              		.loc 1 638 0
 612 000e BB1D     		add	r3, r7, #6
 613 0010 1B88     		ldrh	r3, [r3]
 639:.\Generated_Source\PSoC4/GLCD_SPIM_UDB.c **** }
 614              		.loc 1 639 0
 615 0012 181C     		mov	r0, r3
ARM GAS  C:\Users\Colin\AppData\Local\Temp\ccYoaoge.s 			page 23


 616 0014 BD46     		mov	sp, r7
 617 0016 02B0     		add	sp, sp, #8
 618              		@ sp needed for prologue
 619 0018 80BD     		pop	{r7, pc}
 620              	.L39:
 621 001a C046     		.align	2
 622              	.L38:
 623 001c A4100F40 		.word	1074729124
 624              		.cfi_endproc
 625              	.LFE13:
 626              		.size	GLCD_SPIM_UDB_ReadRxData, .-GLCD_SPIM_UDB_ReadRxData
 627              		.section	.text.GLCD_SPIM_UDB_GetRxBufferSize,"ax",%progbits
 628              		.align	2
 629              		.global	GLCD_SPIM_UDB_GetRxBufferSize
 630              		.code	16
 631              		.thumb_func
 632              		.type	GLCD_SPIM_UDB_GetRxBufferSize, %function
 633              	GLCD_SPIM_UDB_GetRxBufferSize:
 634              	.LFB14:
 640:.\Generated_Source\PSoC4/GLCD_SPIM_UDB.c **** 
 641:.\Generated_Source\PSoC4/GLCD_SPIM_UDB.c **** 
 642:.\Generated_Source\PSoC4/GLCD_SPIM_UDB.c **** /*******************************************************************************
 643:.\Generated_Source\PSoC4/GLCD_SPIM_UDB.c **** * Function Name: GLCD_SPIM_UDB_GetRxBufferSize
 644:.\Generated_Source\PSoC4/GLCD_SPIM_UDB.c **** ********************************************************************************
 645:.\Generated_Source\PSoC4/GLCD_SPIM_UDB.c **** *
 646:.\Generated_Source\PSoC4/GLCD_SPIM_UDB.c **** * Summary:
 647:.\Generated_Source\PSoC4/GLCD_SPIM_UDB.c **** *  Returns the number of bytes/words of data currently held in the RX buffer.
 648:.\Generated_Source\PSoC4/GLCD_SPIM_UDB.c **** *  If RX Software Buffer not used then function return 0 if FIFO empty or 1 if
 649:.\Generated_Source\PSoC4/GLCD_SPIM_UDB.c **** *  FIFO not empty. In another case function return size of RX Software Buffer.
 650:.\Generated_Source\PSoC4/GLCD_SPIM_UDB.c **** *
 651:.\Generated_Source\PSoC4/GLCD_SPIM_UDB.c **** * Parameters:
 652:.\Generated_Source\PSoC4/GLCD_SPIM_UDB.c **** *  None.
 653:.\Generated_Source\PSoC4/GLCD_SPIM_UDB.c **** *
 654:.\Generated_Source\PSoC4/GLCD_SPIM_UDB.c **** * Return:
 655:.\Generated_Source\PSoC4/GLCD_SPIM_UDB.c **** *  Integer count of the number of bytes/words in the RX buffer.
 656:.\Generated_Source\PSoC4/GLCD_SPIM_UDB.c **** *
 657:.\Generated_Source\PSoC4/GLCD_SPIM_UDB.c **** * Global variables:
 658:.\Generated_Source\PSoC4/GLCD_SPIM_UDB.c **** *  GLCD_SPIM_UDB_rxBufferWrite - used for the account of the bytes which
 659:.\Generated_Source\PSoC4/GLCD_SPIM_UDB.c **** *  have been written down in the RX software buffer.
 660:.\Generated_Source\PSoC4/GLCD_SPIM_UDB.c **** *  GLCD_SPIM_UDB_rxBufferRead - used for the account of the bytes which
 661:.\Generated_Source\PSoC4/GLCD_SPIM_UDB.c **** *  have been read from the RX software buffer.
 662:.\Generated_Source\PSoC4/GLCD_SPIM_UDB.c **** *
 663:.\Generated_Source\PSoC4/GLCD_SPIM_UDB.c **** * Side Effects:
 664:.\Generated_Source\PSoC4/GLCD_SPIM_UDB.c **** *  Clear status register of the component.
 665:.\Generated_Source\PSoC4/GLCD_SPIM_UDB.c **** *
 666:.\Generated_Source\PSoC4/GLCD_SPIM_UDB.c **** *******************************************************************************/
 667:.\Generated_Source\PSoC4/GLCD_SPIM_UDB.c **** uint8 GLCD_SPIM_UDB_GetRxBufferSize(void) 
 668:.\Generated_Source\PSoC4/GLCD_SPIM_UDB.c **** {
 635              		.loc 1 668 0
 636              		.cfi_startproc
 637 0000 80B5     		push	{r7, lr}
 638              	.LCFI36:
 639              		.cfi_def_cfa_offset 8
 640              		.cfi_offset 7, -8
 641              		.cfi_offset 14, -4
 642 0002 82B0     		sub	sp, sp, #8
 643              	.LCFI37:
ARM GAS  C:\Users\Colin\AppData\Local\Temp\ccYoaoge.s 			page 24


 644              		.cfi_def_cfa_offset 16
 645 0004 00AF     		add	r7, sp, #0
 646              	.LCFI38:
 647              		.cfi_def_cfa_register 7
 669:.\Generated_Source\PSoC4/GLCD_SPIM_UDB.c ****     uint8 size;
 670:.\Generated_Source\PSoC4/GLCD_SPIM_UDB.c **** 
 671:.\Generated_Source\PSoC4/GLCD_SPIM_UDB.c ****     #if(GLCD_SPIM_UDB_RX_SOFTWARE_BUF_ENABLED)
 672:.\Generated_Source\PSoC4/GLCD_SPIM_UDB.c **** 
 673:.\Generated_Source\PSoC4/GLCD_SPIM_UDB.c ****         /* Disable RX interrupt to protect global veriables */
 674:.\Generated_Source\PSoC4/GLCD_SPIM_UDB.c ****         GLCD_SPIM_UDB_DisableRxInt();
 675:.\Generated_Source\PSoC4/GLCD_SPIM_UDB.c **** 
 676:.\Generated_Source\PSoC4/GLCD_SPIM_UDB.c ****         if(GLCD_SPIM_UDB_rxBufferRead == GLCD_SPIM_UDB_rxBufferWrite)
 677:.\Generated_Source\PSoC4/GLCD_SPIM_UDB.c ****         {
 678:.\Generated_Source\PSoC4/GLCD_SPIM_UDB.c ****             size = 0u;
 679:.\Generated_Source\PSoC4/GLCD_SPIM_UDB.c ****         }
 680:.\Generated_Source\PSoC4/GLCD_SPIM_UDB.c ****         else if(GLCD_SPIM_UDB_rxBufferRead < GLCD_SPIM_UDB_rxBufferWrite)
 681:.\Generated_Source\PSoC4/GLCD_SPIM_UDB.c ****         {
 682:.\Generated_Source\PSoC4/GLCD_SPIM_UDB.c ****             size = (GLCD_SPIM_UDB_rxBufferWrite - GLCD_SPIM_UDB_rxBufferRead);
 683:.\Generated_Source\PSoC4/GLCD_SPIM_UDB.c ****         }
 684:.\Generated_Source\PSoC4/GLCD_SPIM_UDB.c ****         else
 685:.\Generated_Source\PSoC4/GLCD_SPIM_UDB.c ****         {
 686:.\Generated_Source\PSoC4/GLCD_SPIM_UDB.c ****             size = (GLCD_SPIM_UDB_RX_BUFFER_SIZE - GLCD_SPIM_UDB_rxBufferRead) + GLCD_SPIM_UDB_rxBu
 687:.\Generated_Source\PSoC4/GLCD_SPIM_UDB.c ****         }
 688:.\Generated_Source\PSoC4/GLCD_SPIM_UDB.c **** 
 689:.\Generated_Source\PSoC4/GLCD_SPIM_UDB.c ****         GLCD_SPIM_UDB_EnableRxInt();
 690:.\Generated_Source\PSoC4/GLCD_SPIM_UDB.c **** 
 691:.\Generated_Source\PSoC4/GLCD_SPIM_UDB.c ****     #else
 692:.\Generated_Source\PSoC4/GLCD_SPIM_UDB.c **** 
 693:.\Generated_Source\PSoC4/GLCD_SPIM_UDB.c ****         /* We can only know if there is data in the RX FIFO */
 694:.\Generated_Source\PSoC4/GLCD_SPIM_UDB.c ****         size = (0u != (GLCD_SPIM_UDB_RX_STATUS_REG & GLCD_SPIM_UDB_STS_RX_FIFO_NOT_EMPTY)) ? 1u : 0
 648              		.loc 1 694 0
 649 0006 094B     		ldr	r3, .L44
 650 0008 1B78     		ldrb	r3, [r3]
 651 000a DBB2     		uxtb	r3, r3
 652 000c 1A1C     		mov	r2, r3
 653 000e 2023     		mov	r3, #32
 654 0010 1340     		and	r3, r2
 655 0012 01D0     		beq	.L41
 656              		.loc 1 694 0 is_stmt 0 discriminator 1
 657 0014 0123     		mov	r3, #1
 658 0016 00E0     		b	.L42
 659              	.L41:
 660              		.loc 1 694 0 discriminator 2
 661 0018 0023     		mov	r3, #0
 662              	.L42:
 663              		.loc 1 694 0 discriminator 3
 664 001a FA1D     		add	r2, r7, #7
 665 001c 1370     		strb	r3, [r2]
 695:.\Generated_Source\PSoC4/GLCD_SPIM_UDB.c **** 
 696:.\Generated_Source\PSoC4/GLCD_SPIM_UDB.c ****     #endif /* (GLCD_SPIM_UDB_TX_SOFTWARE_BUF_ENABLED) */
 697:.\Generated_Source\PSoC4/GLCD_SPIM_UDB.c **** 
 698:.\Generated_Source\PSoC4/GLCD_SPIM_UDB.c ****     return(size);
 666              		.loc 1 698 0 is_stmt 1 discriminator 3
 667 001e FB1D     		add	r3, r7, #7
 668 0020 1B78     		ldrb	r3, [r3]
 699:.\Generated_Source\PSoC4/GLCD_SPIM_UDB.c **** }
 669              		.loc 1 699 0 discriminator 3
ARM GAS  C:\Users\Colin\AppData\Local\Temp\ccYoaoge.s 			page 25


 670 0022 181C     		mov	r0, r3
 671 0024 BD46     		mov	sp, r7
 672 0026 02B0     		add	sp, sp, #8
 673              		@ sp needed for prologue
 674 0028 80BD     		pop	{r7, pc}
 675              	.L45:
 676 002a C046     		.align	2
 677              	.L44:
 678 002c 60000F40 		.word	1074724960
 679              		.cfi_endproc
 680              	.LFE14:
 681              		.size	GLCD_SPIM_UDB_GetRxBufferSize, .-GLCD_SPIM_UDB_GetRxBufferSize
 682              		.section	.text.GLCD_SPIM_UDB_GetTxBufferSize,"ax",%progbits
 683              		.align	2
 684              		.global	GLCD_SPIM_UDB_GetTxBufferSize
 685              		.code	16
 686              		.thumb_func
 687              		.type	GLCD_SPIM_UDB_GetTxBufferSize, %function
 688              	GLCD_SPIM_UDB_GetTxBufferSize:
 689              	.LFB15:
 700:.\Generated_Source\PSoC4/GLCD_SPIM_UDB.c **** 
 701:.\Generated_Source\PSoC4/GLCD_SPIM_UDB.c **** 
 702:.\Generated_Source\PSoC4/GLCD_SPIM_UDB.c **** /*******************************************************************************
 703:.\Generated_Source\PSoC4/GLCD_SPIM_UDB.c **** * Function Name: GLCD_SPIM_UDB_GetTxBufferSize
 704:.\Generated_Source\PSoC4/GLCD_SPIM_UDB.c **** ********************************************************************************
 705:.\Generated_Source\PSoC4/GLCD_SPIM_UDB.c **** *
 706:.\Generated_Source\PSoC4/GLCD_SPIM_UDB.c **** * Summary:
 707:.\Generated_Source\PSoC4/GLCD_SPIM_UDB.c **** *  Returns the number of bytes/words of data currently held in the TX buffer.
 708:.\Generated_Source\PSoC4/GLCD_SPIM_UDB.c **** *  If TX Software Buffer not used then function return 0 - if FIFO empty, 1 - if
 709:.\Generated_Source\PSoC4/GLCD_SPIM_UDB.c **** *  FIFO not full, 4 - if FIFO full. In another case function return size of TX
 710:.\Generated_Source\PSoC4/GLCD_SPIM_UDB.c **** *  Software Buffer.
 711:.\Generated_Source\PSoC4/GLCD_SPIM_UDB.c **** *
 712:.\Generated_Source\PSoC4/GLCD_SPIM_UDB.c **** * Parameters:
 713:.\Generated_Source\PSoC4/GLCD_SPIM_UDB.c **** *  None.
 714:.\Generated_Source\PSoC4/GLCD_SPIM_UDB.c **** *
 715:.\Generated_Source\PSoC4/GLCD_SPIM_UDB.c **** * Return:
 716:.\Generated_Source\PSoC4/GLCD_SPIM_UDB.c **** *  Integer count of the number of bytes/words in the TX buffer.
 717:.\Generated_Source\PSoC4/GLCD_SPIM_UDB.c **** *
 718:.\Generated_Source\PSoC4/GLCD_SPIM_UDB.c **** * Global variables:
 719:.\Generated_Source\PSoC4/GLCD_SPIM_UDB.c **** *  GLCD_SPIM_UDB_txBufferWrite - used for the account of the bytes which
 720:.\Generated_Source\PSoC4/GLCD_SPIM_UDB.c **** *  have been written down in the TX software buffer.
 721:.\Generated_Source\PSoC4/GLCD_SPIM_UDB.c **** *  GLCD_SPIM_UDB_txBufferRead - used for the account of the bytes which
 722:.\Generated_Source\PSoC4/GLCD_SPIM_UDB.c **** *  have been read from the TX software buffer.
 723:.\Generated_Source\PSoC4/GLCD_SPIM_UDB.c **** *
 724:.\Generated_Source\PSoC4/GLCD_SPIM_UDB.c **** * Side Effects:
 725:.\Generated_Source\PSoC4/GLCD_SPIM_UDB.c **** *  Clear status register of the component.
 726:.\Generated_Source\PSoC4/GLCD_SPIM_UDB.c **** *
 727:.\Generated_Source\PSoC4/GLCD_SPIM_UDB.c **** *******************************************************************************/
 728:.\Generated_Source\PSoC4/GLCD_SPIM_UDB.c **** uint8  GLCD_SPIM_UDB_GetTxBufferSize(void) 
 729:.\Generated_Source\PSoC4/GLCD_SPIM_UDB.c **** {
 690              		.loc 1 729 0
 691              		.cfi_startproc
 692 0000 80B5     		push	{r7, lr}
 693              	.LCFI39:
 694              		.cfi_def_cfa_offset 8
 695              		.cfi_offset 7, -8
 696              		.cfi_offset 14, -4
ARM GAS  C:\Users\Colin\AppData\Local\Temp\ccYoaoge.s 			page 26


 697 0002 82B0     		sub	sp, sp, #8
 698              	.LCFI40:
 699              		.cfi_def_cfa_offset 16
 700 0004 00AF     		add	r7, sp, #0
 701              	.LCFI41:
 702              		.cfi_def_cfa_register 7
 730:.\Generated_Source\PSoC4/GLCD_SPIM_UDB.c ****     uint8 size;
 731:.\Generated_Source\PSoC4/GLCD_SPIM_UDB.c **** 
 732:.\Generated_Source\PSoC4/GLCD_SPIM_UDB.c ****     #if(GLCD_SPIM_UDB_TX_SOFTWARE_BUF_ENABLED)
 733:.\Generated_Source\PSoC4/GLCD_SPIM_UDB.c ****         /* Disable TX interrupt to protect global veriables */
 734:.\Generated_Source\PSoC4/GLCD_SPIM_UDB.c ****         GLCD_SPIM_UDB_DisableTxInt();
 735:.\Generated_Source\PSoC4/GLCD_SPIM_UDB.c **** 
 736:.\Generated_Source\PSoC4/GLCD_SPIM_UDB.c ****         if(GLCD_SPIM_UDB_txBufferRead == GLCD_SPIM_UDB_txBufferWrite)
 737:.\Generated_Source\PSoC4/GLCD_SPIM_UDB.c ****         {
 738:.\Generated_Source\PSoC4/GLCD_SPIM_UDB.c ****             size = 0u;
 739:.\Generated_Source\PSoC4/GLCD_SPIM_UDB.c ****         }
 740:.\Generated_Source\PSoC4/GLCD_SPIM_UDB.c ****         else if(GLCD_SPIM_UDB_txBufferRead < GLCD_SPIM_UDB_txBufferWrite)
 741:.\Generated_Source\PSoC4/GLCD_SPIM_UDB.c ****         {
 742:.\Generated_Source\PSoC4/GLCD_SPIM_UDB.c ****             size = (GLCD_SPIM_UDB_txBufferWrite - GLCD_SPIM_UDB_txBufferRead);
 743:.\Generated_Source\PSoC4/GLCD_SPIM_UDB.c ****         }
 744:.\Generated_Source\PSoC4/GLCD_SPIM_UDB.c ****         else
 745:.\Generated_Source\PSoC4/GLCD_SPIM_UDB.c ****         {
 746:.\Generated_Source\PSoC4/GLCD_SPIM_UDB.c ****             size = (GLCD_SPIM_UDB_TX_BUFFER_SIZE - GLCD_SPIM_UDB_txBufferRead) + GLCD_SPIM_UDB_txBu
 747:.\Generated_Source\PSoC4/GLCD_SPIM_UDB.c ****         }
 748:.\Generated_Source\PSoC4/GLCD_SPIM_UDB.c **** 
 749:.\Generated_Source\PSoC4/GLCD_SPIM_UDB.c ****         GLCD_SPIM_UDB_EnableTxInt();
 750:.\Generated_Source\PSoC4/GLCD_SPIM_UDB.c **** 
 751:.\Generated_Source\PSoC4/GLCD_SPIM_UDB.c ****     #else
 752:.\Generated_Source\PSoC4/GLCD_SPIM_UDB.c **** 
 753:.\Generated_Source\PSoC4/GLCD_SPIM_UDB.c ****         size = GLCD_SPIM_UDB_TX_STATUS_REG;
 703              		.loc 1 753 0
 704 0006 0F4A     		ldr	r2, .L51
 705 0008 FB1D     		add	r3, r7, #7
 706 000a 1278     		ldrb	r2, [r2]
 707 000c 1A70     		strb	r2, [r3]
 754:.\Generated_Source\PSoC4/GLCD_SPIM_UDB.c **** 
 755:.\Generated_Source\PSoC4/GLCD_SPIM_UDB.c ****         if(0u != (size & GLCD_SPIM_UDB_STS_TX_FIFO_EMPTY))
 708              		.loc 1 755 0
 709 000e FB1D     		add	r3, r7, #7
 710 0010 1A78     		ldrb	r2, [r3]
 711 0012 0223     		mov	r3, #2
 712 0014 1340     		and	r3, r2
 713 0016 03D0     		beq	.L47
 756:.\Generated_Source\PSoC4/GLCD_SPIM_UDB.c ****         {
 757:.\Generated_Source\PSoC4/GLCD_SPIM_UDB.c ****             size = 0u;
 714              		.loc 1 757 0
 715 0018 FB1D     		add	r3, r7, #7
 716 001a 0022     		mov	r2, #0
 717 001c 1A70     		strb	r2, [r3]
 718 001e 0BE0     		b	.L48
 719              	.L47:
 758:.\Generated_Source\PSoC4/GLCD_SPIM_UDB.c ****         }
 759:.\Generated_Source\PSoC4/GLCD_SPIM_UDB.c ****         else if(0u != (size & GLCD_SPIM_UDB_STS_TX_FIFO_NOT_FULL))
 720              		.loc 1 759 0
 721 0020 FB1D     		add	r3, r7, #7
 722 0022 1A78     		ldrb	r2, [r3]
 723 0024 0423     		mov	r3, #4
ARM GAS  C:\Users\Colin\AppData\Local\Temp\ccYoaoge.s 			page 27


 724 0026 1340     		and	r3, r2
 725 0028 03D0     		beq	.L49
 760:.\Generated_Source\PSoC4/GLCD_SPIM_UDB.c ****         {
 761:.\Generated_Source\PSoC4/GLCD_SPIM_UDB.c ****             size = 1u;
 726              		.loc 1 761 0
 727 002a FB1D     		add	r3, r7, #7
 728 002c 0122     		mov	r2, #1
 729 002e 1A70     		strb	r2, [r3]
 730 0030 02E0     		b	.L48
 731              	.L49:
 762:.\Generated_Source\PSoC4/GLCD_SPIM_UDB.c ****         }
 763:.\Generated_Source\PSoC4/GLCD_SPIM_UDB.c ****         else
 764:.\Generated_Source\PSoC4/GLCD_SPIM_UDB.c ****         {
 765:.\Generated_Source\PSoC4/GLCD_SPIM_UDB.c ****             size = GLCD_SPIM_UDB_FIFO_SIZE;
 732              		.loc 1 765 0
 733 0032 FB1D     		add	r3, r7, #7
 734 0034 0422     		mov	r2, #4
 735 0036 1A70     		strb	r2, [r3]
 736              	.L48:
 766:.\Generated_Source\PSoC4/GLCD_SPIM_UDB.c ****         }
 767:.\Generated_Source\PSoC4/GLCD_SPIM_UDB.c **** 
 768:.\Generated_Source\PSoC4/GLCD_SPIM_UDB.c ****     #endif /* (GLCD_SPIM_UDB_TX_SOFTWARE_BUF_ENABLED) */
 769:.\Generated_Source\PSoC4/GLCD_SPIM_UDB.c **** 
 770:.\Generated_Source\PSoC4/GLCD_SPIM_UDB.c ****     return(size);
 737              		.loc 1 770 0
 738 0038 FB1D     		add	r3, r7, #7
 739 003a 1B78     		ldrb	r3, [r3]
 771:.\Generated_Source\PSoC4/GLCD_SPIM_UDB.c **** }
 740              		.loc 1 771 0
 741 003c 181C     		mov	r0, r3
 742 003e BD46     		mov	sp, r7
 743 0040 02B0     		add	sp, sp, #8
 744              		@ sp needed for prologue
 745 0042 80BD     		pop	{r7, pc}
 746              	.L52:
 747              		.align	2
 748              	.L51:
 749 0044 62000F40 		.word	1074724962
 750              		.cfi_endproc
 751              	.LFE15:
 752              		.size	GLCD_SPIM_UDB_GetTxBufferSize, .-GLCD_SPIM_UDB_GetTxBufferSize
 753              		.section	.text.GLCD_SPIM_UDB_ClearRxBuffer,"ax",%progbits
 754              		.align	2
 755              		.global	GLCD_SPIM_UDB_ClearRxBuffer
 756              		.code	16
 757              		.thumb_func
 758              		.type	GLCD_SPIM_UDB_ClearRxBuffer, %function
 759              	GLCD_SPIM_UDB_ClearRxBuffer:
 760              	.LFB16:
 772:.\Generated_Source\PSoC4/GLCD_SPIM_UDB.c **** 
 773:.\Generated_Source\PSoC4/GLCD_SPIM_UDB.c **** 
 774:.\Generated_Source\PSoC4/GLCD_SPIM_UDB.c **** /*******************************************************************************
 775:.\Generated_Source\PSoC4/GLCD_SPIM_UDB.c **** * Function Name: GLCD_SPIM_UDB_ClearRxBuffer
 776:.\Generated_Source\PSoC4/GLCD_SPIM_UDB.c **** ********************************************************************************
 777:.\Generated_Source\PSoC4/GLCD_SPIM_UDB.c **** *
 778:.\Generated_Source\PSoC4/GLCD_SPIM_UDB.c **** * Summary:
 779:.\Generated_Source\PSoC4/GLCD_SPIM_UDB.c **** *  Clear the RX RAM buffer by setting the read and write pointers both to zero.
ARM GAS  C:\Users\Colin\AppData\Local\Temp\ccYoaoge.s 			page 28


 780:.\Generated_Source\PSoC4/GLCD_SPIM_UDB.c **** *
 781:.\Generated_Source\PSoC4/GLCD_SPIM_UDB.c **** * Parameters:
 782:.\Generated_Source\PSoC4/GLCD_SPIM_UDB.c **** *  None.
 783:.\Generated_Source\PSoC4/GLCD_SPIM_UDB.c **** *
 784:.\Generated_Source\PSoC4/GLCD_SPIM_UDB.c **** * Return:
 785:.\Generated_Source\PSoC4/GLCD_SPIM_UDB.c **** *  None.
 786:.\Generated_Source\PSoC4/GLCD_SPIM_UDB.c **** *
 787:.\Generated_Source\PSoC4/GLCD_SPIM_UDB.c **** * Global variables:
 788:.\Generated_Source\PSoC4/GLCD_SPIM_UDB.c **** *  GLCD_SPIM_UDB_rxBufferWrite - used for the account of the bytes which
 789:.\Generated_Source\PSoC4/GLCD_SPIM_UDB.c **** *  have been written down in the RX software buffer, modified every function
 790:.\Generated_Source\PSoC4/GLCD_SPIM_UDB.c **** *  call - resets to zero.
 791:.\Generated_Source\PSoC4/GLCD_SPIM_UDB.c **** *  GLCD_SPIM_UDB_rxBufferRead - used for the account of the bytes which
 792:.\Generated_Source\PSoC4/GLCD_SPIM_UDB.c **** *  have been read from the RX software buffer, modified every function call -
 793:.\Generated_Source\PSoC4/GLCD_SPIM_UDB.c **** *  resets to zero.
 794:.\Generated_Source\PSoC4/GLCD_SPIM_UDB.c **** *
 795:.\Generated_Source\PSoC4/GLCD_SPIM_UDB.c **** * Theory:
 796:.\Generated_Source\PSoC4/GLCD_SPIM_UDB.c **** *  Setting the pointers to zero makes the system believe there is no data to
 797:.\Generated_Source\PSoC4/GLCD_SPIM_UDB.c **** *  read and writing will resume at address 0 overwriting any data that may have
 798:.\Generated_Source\PSoC4/GLCD_SPIM_UDB.c **** *  remained in the RAM.
 799:.\Generated_Source\PSoC4/GLCD_SPIM_UDB.c **** *
 800:.\Generated_Source\PSoC4/GLCD_SPIM_UDB.c **** * Side Effects:
 801:.\Generated_Source\PSoC4/GLCD_SPIM_UDB.c **** *  Any received data not read from the RAM buffer will be lost when overwritten.
 802:.\Generated_Source\PSoC4/GLCD_SPIM_UDB.c **** *
 803:.\Generated_Source\PSoC4/GLCD_SPIM_UDB.c **** * Reentrant:
 804:.\Generated_Source\PSoC4/GLCD_SPIM_UDB.c **** *  No.
 805:.\Generated_Source\PSoC4/GLCD_SPIM_UDB.c **** *
 806:.\Generated_Source\PSoC4/GLCD_SPIM_UDB.c **** *******************************************************************************/
 807:.\Generated_Source\PSoC4/GLCD_SPIM_UDB.c **** void GLCD_SPIM_UDB_ClearRxBuffer(void) 
 808:.\Generated_Source\PSoC4/GLCD_SPIM_UDB.c **** {
 761              		.loc 1 808 0
 762              		.cfi_startproc
 763 0000 80B5     		push	{r7, lr}
 764              	.LCFI42:
 765              		.cfi_def_cfa_offset 8
 766              		.cfi_offset 7, -8
 767              		.cfi_offset 14, -4
 768 0002 00AF     		add	r7, sp, #0
 769              	.LCFI43:
 770              		.cfi_def_cfa_register 7
 809:.\Generated_Source\PSoC4/GLCD_SPIM_UDB.c ****     /* Clear Hardware RX FIFO */
 810:.\Generated_Source\PSoC4/GLCD_SPIM_UDB.c ****     while(0u !=(GLCD_SPIM_UDB_RX_STATUS_REG & GLCD_SPIM_UDB_STS_RX_FIFO_NOT_EMPTY))
 771              		.loc 1 810 0
 772 0004 01E0     		b	.L54
 773              	.L55:
 811:.\Generated_Source\PSoC4/GLCD_SPIM_UDB.c ****     {
 812:.\Generated_Source\PSoC4/GLCD_SPIM_UDB.c ****         (void) CY_GET_REG16(GLCD_SPIM_UDB_RXDATA_PTR);
 774              		.loc 1 812 0
 775 0006 054B     		ldr	r3, .L56
 776 0008 1B88     		ldrh	r3, [r3]
 777              	.L54:
 810:.\Generated_Source\PSoC4/GLCD_SPIM_UDB.c ****     while(0u !=(GLCD_SPIM_UDB_RX_STATUS_REG & GLCD_SPIM_UDB_STS_RX_FIFO_NOT_EMPTY))
 778              		.loc 1 810 0 discriminator 1
 779 000a 054B     		ldr	r3, .L56+4
 780 000c 1B78     		ldrb	r3, [r3]
 781 000e DBB2     		uxtb	r3, r3
 782 0010 1A1C     		mov	r2, r3
 783 0012 2023     		mov	r3, #32
ARM GAS  C:\Users\Colin\AppData\Local\Temp\ccYoaoge.s 			page 29


 784 0014 1340     		and	r3, r2
 785 0016 F6D1     		bne	.L55
 813:.\Generated_Source\PSoC4/GLCD_SPIM_UDB.c ****     }
 814:.\Generated_Source\PSoC4/GLCD_SPIM_UDB.c **** 
 815:.\Generated_Source\PSoC4/GLCD_SPIM_UDB.c ****     #if(GLCD_SPIM_UDB_RX_SOFTWARE_BUF_ENABLED)
 816:.\Generated_Source\PSoC4/GLCD_SPIM_UDB.c ****         /* Disable RX interrupt to protect global veriables */
 817:.\Generated_Source\PSoC4/GLCD_SPIM_UDB.c ****         GLCD_SPIM_UDB_DisableRxInt();
 818:.\Generated_Source\PSoC4/GLCD_SPIM_UDB.c **** 
 819:.\Generated_Source\PSoC4/GLCD_SPIM_UDB.c ****         GLCD_SPIM_UDB_rxBufferFull  = 0u;
 820:.\Generated_Source\PSoC4/GLCD_SPIM_UDB.c ****         GLCD_SPIM_UDB_rxBufferRead  = 0u;
 821:.\Generated_Source\PSoC4/GLCD_SPIM_UDB.c ****         GLCD_SPIM_UDB_rxBufferWrite = 0u;
 822:.\Generated_Source\PSoC4/GLCD_SPIM_UDB.c **** 
 823:.\Generated_Source\PSoC4/GLCD_SPIM_UDB.c ****         GLCD_SPIM_UDB_EnableRxInt();
 824:.\Generated_Source\PSoC4/GLCD_SPIM_UDB.c ****     #endif /* (GLCD_SPIM_UDB_RX_SOFTWARE_BUF_ENABLED) */
 825:.\Generated_Source\PSoC4/GLCD_SPIM_UDB.c **** }
 786              		.loc 1 825 0
 787 0018 BD46     		mov	sp, r7
 788              		@ sp needed for prologue
 789 001a 80BD     		pop	{r7, pc}
 790              	.L57:
 791              		.align	2
 792              	.L56:
 793 001c A4100F40 		.word	1074729124
 794 0020 60000F40 		.word	1074724960
 795              		.cfi_endproc
 796              	.LFE16:
 797              		.size	GLCD_SPIM_UDB_ClearRxBuffer, .-GLCD_SPIM_UDB_ClearRxBuffer
 798              		.section	.text.GLCD_SPIM_UDB_ClearTxBuffer,"ax",%progbits
 799              		.align	2
 800              		.global	GLCD_SPIM_UDB_ClearTxBuffer
 801              		.code	16
 802              		.thumb_func
 803              		.type	GLCD_SPIM_UDB_ClearTxBuffer, %function
 804              	GLCD_SPIM_UDB_ClearTxBuffer:
 805              	.LFB17:
 826:.\Generated_Source\PSoC4/GLCD_SPIM_UDB.c **** 
 827:.\Generated_Source\PSoC4/GLCD_SPIM_UDB.c **** 
 828:.\Generated_Source\PSoC4/GLCD_SPIM_UDB.c **** /*******************************************************************************
 829:.\Generated_Source\PSoC4/GLCD_SPIM_UDB.c **** * Function Name: GLCD_SPIM_UDB_ClearTxBuffer
 830:.\Generated_Source\PSoC4/GLCD_SPIM_UDB.c **** ********************************************************************************
 831:.\Generated_Source\PSoC4/GLCD_SPIM_UDB.c **** *
 832:.\Generated_Source\PSoC4/GLCD_SPIM_UDB.c **** * Summary:
 833:.\Generated_Source\PSoC4/GLCD_SPIM_UDB.c **** *  Clear the TX RAM buffer by setting the read and write pointers both to zero.
 834:.\Generated_Source\PSoC4/GLCD_SPIM_UDB.c **** *
 835:.\Generated_Source\PSoC4/GLCD_SPIM_UDB.c **** * Parameters:
 836:.\Generated_Source\PSoC4/GLCD_SPIM_UDB.c **** *  None.
 837:.\Generated_Source\PSoC4/GLCD_SPIM_UDB.c **** *
 838:.\Generated_Source\PSoC4/GLCD_SPIM_UDB.c **** * Return:
 839:.\Generated_Source\PSoC4/GLCD_SPIM_UDB.c **** *  None.
 840:.\Generated_Source\PSoC4/GLCD_SPIM_UDB.c **** *
 841:.\Generated_Source\PSoC4/GLCD_SPIM_UDB.c **** * Global variables:
 842:.\Generated_Source\PSoC4/GLCD_SPIM_UDB.c **** *  GLCD_SPIM_UDB_txBufferWrite - used for the account of the bytes which
 843:.\Generated_Source\PSoC4/GLCD_SPIM_UDB.c **** *  have been written down in the TX software buffer, modified every function
 844:.\Generated_Source\PSoC4/GLCD_SPIM_UDB.c **** *  call - resets to zero.
 845:.\Generated_Source\PSoC4/GLCD_SPIM_UDB.c **** *  GLCD_SPIM_UDB_txBufferRead - used for the account of the bytes which
 846:.\Generated_Source\PSoC4/GLCD_SPIM_UDB.c **** *  have been read from the TX software buffer, modified every function call -
 847:.\Generated_Source\PSoC4/GLCD_SPIM_UDB.c **** *  resets to zero.
ARM GAS  C:\Users\Colin\AppData\Local\Temp\ccYoaoge.s 			page 30


 848:.\Generated_Source\PSoC4/GLCD_SPIM_UDB.c **** *
 849:.\Generated_Source\PSoC4/GLCD_SPIM_UDB.c **** * Theory:
 850:.\Generated_Source\PSoC4/GLCD_SPIM_UDB.c **** *  Setting the pointers to zero makes the system believe there is no data to
 851:.\Generated_Source\PSoC4/GLCD_SPIM_UDB.c **** *  read and writing will resume at address 0 overwriting any data that may have
 852:.\Generated_Source\PSoC4/GLCD_SPIM_UDB.c **** *  remained in the RAM.
 853:.\Generated_Source\PSoC4/GLCD_SPIM_UDB.c **** *
 854:.\Generated_Source\PSoC4/GLCD_SPIM_UDB.c **** * Side Effects:
 855:.\Generated_Source\PSoC4/GLCD_SPIM_UDB.c **** *  Any data not yet transmitted from the RAM buffer will be lost when
 856:.\Generated_Source\PSoC4/GLCD_SPIM_UDB.c **** *  overwritten.
 857:.\Generated_Source\PSoC4/GLCD_SPIM_UDB.c **** *
 858:.\Generated_Source\PSoC4/GLCD_SPIM_UDB.c **** * Reentrant:
 859:.\Generated_Source\PSoC4/GLCD_SPIM_UDB.c **** *  No.
 860:.\Generated_Source\PSoC4/GLCD_SPIM_UDB.c **** *
 861:.\Generated_Source\PSoC4/GLCD_SPIM_UDB.c **** *******************************************************************************/
 862:.\Generated_Source\PSoC4/GLCD_SPIM_UDB.c **** void GLCD_SPIM_UDB_ClearTxBuffer(void) 
 863:.\Generated_Source\PSoC4/GLCD_SPIM_UDB.c **** {
 806              		.loc 1 863 0
 807              		.cfi_startproc
 808 0000 90B5     		push	{r4, r7, lr}
 809              	.LCFI44:
 810              		.cfi_def_cfa_offset 12
 811              		.cfi_offset 4, -12
 812              		.cfi_offset 7, -8
 813              		.cfi_offset 14, -4
 814 0002 83B0     		sub	sp, sp, #12
 815              	.LCFI45:
 816              		.cfi_def_cfa_offset 24
 817 0004 00AF     		add	r7, sp, #0
 818              	.LCFI46:
 819              		.cfi_def_cfa_register 7
 864:.\Generated_Source\PSoC4/GLCD_SPIM_UDB.c ****     uint8 enableInterrupts;
 865:.\Generated_Source\PSoC4/GLCD_SPIM_UDB.c **** 
 866:.\Generated_Source\PSoC4/GLCD_SPIM_UDB.c ****     enableInterrupts = CyEnterCriticalSection();
 820              		.loc 1 866 0
 821 0006 FC1D     		add	r4, r7, #7
 822 0008 FFF7FEFF 		bl	CyEnterCriticalSection
 823 000c 031C     		mov	r3, r0
 824 000e 2370     		strb	r3, [r4]
 867:.\Generated_Source\PSoC4/GLCD_SPIM_UDB.c ****     /* Clear TX FIFO */
 868:.\Generated_Source\PSoC4/GLCD_SPIM_UDB.c ****     GLCD_SPIM_UDB_AUX_CONTROL_DP0_REG |= ((uint8)  GLCD_SPIM_UDB_TX_FIFO_CLR);
 825              		.loc 1 868 0
 826 0010 134B     		ldr	r3, .L59
 827 0012 134A     		ldr	r2, .L59
 828 0014 1278     		ldrb	r2, [r2]
 829 0016 D2B2     		uxtb	r2, r2
 830 0018 0121     		mov	r1, #1
 831 001a 0A43     		orr	r2, r1
 832 001c D2B2     		uxtb	r2, r2
 833 001e 1A70     		strb	r2, [r3]
 869:.\Generated_Source\PSoC4/GLCD_SPIM_UDB.c ****     GLCD_SPIM_UDB_AUX_CONTROL_DP0_REG &= ((uint8) ~GLCD_SPIM_UDB_TX_FIFO_CLR);
 834              		.loc 1 869 0
 835 0020 0F4B     		ldr	r3, .L59
 836 0022 0F4A     		ldr	r2, .L59
 837 0024 1278     		ldrb	r2, [r2]
 838 0026 D2B2     		uxtb	r2, r2
 839 0028 0121     		mov	r1, #1
 840 002a 8A43     		bic	r2, r1
ARM GAS  C:\Users\Colin\AppData\Local\Temp\ccYoaoge.s 			page 31


 841 002c D2B2     		uxtb	r2, r2
 842 002e 1A70     		strb	r2, [r3]
 870:.\Generated_Source\PSoC4/GLCD_SPIM_UDB.c **** 
 871:.\Generated_Source\PSoC4/GLCD_SPIM_UDB.c ****     #if(GLCD_SPIM_UDB_USE_SECOND_DATAPATH)
 872:.\Generated_Source\PSoC4/GLCD_SPIM_UDB.c ****         /* Clear TX FIFO for 2nd Datapath */
 873:.\Generated_Source\PSoC4/GLCD_SPIM_UDB.c ****         GLCD_SPIM_UDB_AUX_CONTROL_DP1_REG |= ((uint8)  GLCD_SPIM_UDB_TX_FIFO_CLR);
 843              		.loc 1 873 0
 844 0030 0C4B     		ldr	r3, .L59+4
 845 0032 0C4A     		ldr	r2, .L59+4
 846 0034 1278     		ldrb	r2, [r2]
 847 0036 D2B2     		uxtb	r2, r2
 848 0038 0121     		mov	r1, #1
 849 003a 0A43     		orr	r2, r1
 850 003c D2B2     		uxtb	r2, r2
 851 003e 1A70     		strb	r2, [r3]
 874:.\Generated_Source\PSoC4/GLCD_SPIM_UDB.c ****         GLCD_SPIM_UDB_AUX_CONTROL_DP1_REG &= ((uint8) ~GLCD_SPIM_UDB_TX_FIFO_CLR);
 852              		.loc 1 874 0
 853 0040 084B     		ldr	r3, .L59+4
 854 0042 084A     		ldr	r2, .L59+4
 855 0044 1278     		ldrb	r2, [r2]
 856 0046 D2B2     		uxtb	r2, r2
 857 0048 0121     		mov	r1, #1
 858 004a 8A43     		bic	r2, r1
 859 004c D2B2     		uxtb	r2, r2
 860 004e 1A70     		strb	r2, [r3]
 875:.\Generated_Source\PSoC4/GLCD_SPIM_UDB.c ****     #endif /* (GLCD_SPIM_UDB_USE_SECOND_DATAPATH) */
 876:.\Generated_Source\PSoC4/GLCD_SPIM_UDB.c ****     CyExitCriticalSection(enableInterrupts);
 861              		.loc 1 876 0
 862 0050 FB1D     		add	r3, r7, #7
 863 0052 1B78     		ldrb	r3, [r3]
 864 0054 181C     		mov	r0, r3
 865 0056 FFF7FEFF 		bl	CyExitCriticalSection
 877:.\Generated_Source\PSoC4/GLCD_SPIM_UDB.c **** 
 878:.\Generated_Source\PSoC4/GLCD_SPIM_UDB.c ****     #if(GLCD_SPIM_UDB_TX_SOFTWARE_BUF_ENABLED)
 879:.\Generated_Source\PSoC4/GLCD_SPIM_UDB.c ****         /* Disable TX interrupt to protect global veriables */
 880:.\Generated_Source\PSoC4/GLCD_SPIM_UDB.c ****         GLCD_SPIM_UDB_DisableTxInt();
 881:.\Generated_Source\PSoC4/GLCD_SPIM_UDB.c **** 
 882:.\Generated_Source\PSoC4/GLCD_SPIM_UDB.c ****         GLCD_SPIM_UDB_txBufferFull  = 0u;
 883:.\Generated_Source\PSoC4/GLCD_SPIM_UDB.c ****         GLCD_SPIM_UDB_txBufferRead  = 0u;
 884:.\Generated_Source\PSoC4/GLCD_SPIM_UDB.c ****         GLCD_SPIM_UDB_txBufferWrite = 0u;
 885:.\Generated_Source\PSoC4/GLCD_SPIM_UDB.c **** 
 886:.\Generated_Source\PSoC4/GLCD_SPIM_UDB.c ****         /* Buffer is EMPTY: disable TX FIFO NOT FULL interrupt */
 887:.\Generated_Source\PSoC4/GLCD_SPIM_UDB.c ****         GLCD_SPIM_UDB_TX_STATUS_MASK_REG &= ((uint8) ~GLCD_SPIM_UDB_STS_TX_FIFO_NOT_FULL);
 888:.\Generated_Source\PSoC4/GLCD_SPIM_UDB.c **** 
 889:.\Generated_Source\PSoC4/GLCD_SPIM_UDB.c ****         GLCD_SPIM_UDB_EnableTxInt();
 890:.\Generated_Source\PSoC4/GLCD_SPIM_UDB.c ****     #endif /* (GLCD_SPIM_UDB_TX_SOFTWARE_BUF_ENABLED) */
 891:.\Generated_Source\PSoC4/GLCD_SPIM_UDB.c **** }
 866              		.loc 1 891 0
 867 005a BD46     		mov	sp, r7
 868 005c 03B0     		add	sp, sp, #12
 869              		@ sp needed for prologue
 870 005e 90BD     		pop	{r4, r7, pc}
 871              	.L60:
 872              		.align	2
 873              	.L59:
 874 0060 92000F40 		.word	1074725010
 875 0064 93000F40 		.word	1074725011
ARM GAS  C:\Users\Colin\AppData\Local\Temp\ccYoaoge.s 			page 32


 876              		.cfi_endproc
 877              	.LFE17:
 878              		.size	GLCD_SPIM_UDB_ClearTxBuffer, .-GLCD_SPIM_UDB_ClearTxBuffer
 879              		.section	.text.GLCD_SPIM_UDB_PutArray,"ax",%progbits
 880              		.align	2
 881              		.global	GLCD_SPIM_UDB_PutArray
 882              		.code	16
 883              		.thumb_func
 884              		.type	GLCD_SPIM_UDB_PutArray, %function
 885              	GLCD_SPIM_UDB_PutArray:
 886              	.LFB18:
 892:.\Generated_Source\PSoC4/GLCD_SPIM_UDB.c **** 
 893:.\Generated_Source\PSoC4/GLCD_SPIM_UDB.c **** 
 894:.\Generated_Source\PSoC4/GLCD_SPIM_UDB.c **** #if(0u != GLCD_SPIM_UDB_BIDIRECTIONAL_MODE)
 895:.\Generated_Source\PSoC4/GLCD_SPIM_UDB.c ****     /*******************************************************************************
 896:.\Generated_Source\PSoC4/GLCD_SPIM_UDB.c ****     * Function Name: GLCD_SPIM_UDB_TxEnable
 897:.\Generated_Source\PSoC4/GLCD_SPIM_UDB.c ****     ********************************************************************************
 898:.\Generated_Source\PSoC4/GLCD_SPIM_UDB.c ****     *
 899:.\Generated_Source\PSoC4/GLCD_SPIM_UDB.c ****     * Summary:
 900:.\Generated_Source\PSoC4/GLCD_SPIM_UDB.c ****     *  If the SPI master is configured to use a single bi-directional pin then this
 901:.\Generated_Source\PSoC4/GLCD_SPIM_UDB.c ****     *  will set the bi-directional pin to transmit.
 902:.\Generated_Source\PSoC4/GLCD_SPIM_UDB.c ****     *
 903:.\Generated_Source\PSoC4/GLCD_SPIM_UDB.c ****     * Parameters:
 904:.\Generated_Source\PSoC4/GLCD_SPIM_UDB.c ****     *  None.
 905:.\Generated_Source\PSoC4/GLCD_SPIM_UDB.c ****     *
 906:.\Generated_Source\PSoC4/GLCD_SPIM_UDB.c ****     * Return:
 907:.\Generated_Source\PSoC4/GLCD_SPIM_UDB.c ****     *  None.
 908:.\Generated_Source\PSoC4/GLCD_SPIM_UDB.c ****     *
 909:.\Generated_Source\PSoC4/GLCD_SPIM_UDB.c ****     *******************************************************************************/
 910:.\Generated_Source\PSoC4/GLCD_SPIM_UDB.c ****     void GLCD_SPIM_UDB_TxEnable(void) 
 911:.\Generated_Source\PSoC4/GLCD_SPIM_UDB.c ****     {
 912:.\Generated_Source\PSoC4/GLCD_SPIM_UDB.c ****         GLCD_SPIM_UDB_CONTROL_REG |= GLCD_SPIM_UDB_CTRL_TX_SIGNAL_EN;
 913:.\Generated_Source\PSoC4/GLCD_SPIM_UDB.c ****     }
 914:.\Generated_Source\PSoC4/GLCD_SPIM_UDB.c **** 
 915:.\Generated_Source\PSoC4/GLCD_SPIM_UDB.c **** 
 916:.\Generated_Source\PSoC4/GLCD_SPIM_UDB.c ****     /*******************************************************************************
 917:.\Generated_Source\PSoC4/GLCD_SPIM_UDB.c ****     * Function Name: GLCD_SPIM_UDB_TxDisable
 918:.\Generated_Source\PSoC4/GLCD_SPIM_UDB.c ****     ********************************************************************************
 919:.\Generated_Source\PSoC4/GLCD_SPIM_UDB.c ****     *
 920:.\Generated_Source\PSoC4/GLCD_SPIM_UDB.c ****     * Summary:
 921:.\Generated_Source\PSoC4/GLCD_SPIM_UDB.c ****     *  If the SPI master is configured to use a single bi-directional pin then this
 922:.\Generated_Source\PSoC4/GLCD_SPIM_UDB.c ****     *  will set the bi-directional pin to receive.
 923:.\Generated_Source\PSoC4/GLCD_SPIM_UDB.c ****     *
 924:.\Generated_Source\PSoC4/GLCD_SPIM_UDB.c ****     * Parameters:
 925:.\Generated_Source\PSoC4/GLCD_SPIM_UDB.c ****     *  None.
 926:.\Generated_Source\PSoC4/GLCD_SPIM_UDB.c ****     *
 927:.\Generated_Source\PSoC4/GLCD_SPIM_UDB.c ****     * Return:
 928:.\Generated_Source\PSoC4/GLCD_SPIM_UDB.c ****     *  None.
 929:.\Generated_Source\PSoC4/GLCD_SPIM_UDB.c ****     *
 930:.\Generated_Source\PSoC4/GLCD_SPIM_UDB.c ****     *******************************************************************************/
 931:.\Generated_Source\PSoC4/GLCD_SPIM_UDB.c ****     void GLCD_SPIM_UDB_TxDisable(void) 
 932:.\Generated_Source\PSoC4/GLCD_SPIM_UDB.c ****     {
 933:.\Generated_Source\PSoC4/GLCD_SPIM_UDB.c ****         GLCD_SPIM_UDB_CONTROL_REG &= ((uint8) ~GLCD_SPIM_UDB_CTRL_TX_SIGNAL_EN);
 934:.\Generated_Source\PSoC4/GLCD_SPIM_UDB.c ****     }
 935:.\Generated_Source\PSoC4/GLCD_SPIM_UDB.c **** 
 936:.\Generated_Source\PSoC4/GLCD_SPIM_UDB.c **** #endif /* (0u != GLCD_SPIM_UDB_BIDIRECTIONAL_MODE) */
 937:.\Generated_Source\PSoC4/GLCD_SPIM_UDB.c **** 
ARM GAS  C:\Users\Colin\AppData\Local\Temp\ccYoaoge.s 			page 33


 938:.\Generated_Source\PSoC4/GLCD_SPIM_UDB.c **** 
 939:.\Generated_Source\PSoC4/GLCD_SPIM_UDB.c **** /*******************************************************************************
 940:.\Generated_Source\PSoC4/GLCD_SPIM_UDB.c **** * Function Name: GLCD_SPIM_UDB_PutArray
 941:.\Generated_Source\PSoC4/GLCD_SPIM_UDB.c **** ********************************************************************************
 942:.\Generated_Source\PSoC4/GLCD_SPIM_UDB.c **** *
 943:.\Generated_Source\PSoC4/GLCD_SPIM_UDB.c **** * Summary:
 944:.\Generated_Source\PSoC4/GLCD_SPIM_UDB.c **** *  Write available data from ROM/RAM to the TX buffer while space is available
 945:.\Generated_Source\PSoC4/GLCD_SPIM_UDB.c **** *  in the TX buffer. Keep trying until all data is passed to the TX buffer.
 946:.\Generated_Source\PSoC4/GLCD_SPIM_UDB.c **** *
 947:.\Generated_Source\PSoC4/GLCD_SPIM_UDB.c **** * Parameters:
 948:.\Generated_Source\PSoC4/GLCD_SPIM_UDB.c **** *  *buffer: Pointer to the location in RAM containing the data to send
 949:.\Generated_Source\PSoC4/GLCD_SPIM_UDB.c **** *  byteCount: The number of bytes to move to the transmit buffer.
 950:.\Generated_Source\PSoC4/GLCD_SPIM_UDB.c **** *
 951:.\Generated_Source\PSoC4/GLCD_SPIM_UDB.c **** * Return:
 952:.\Generated_Source\PSoC4/GLCD_SPIM_UDB.c **** *  None.
 953:.\Generated_Source\PSoC4/GLCD_SPIM_UDB.c **** *
 954:.\Generated_Source\PSoC4/GLCD_SPIM_UDB.c **** * Side Effects:
 955:.\Generated_Source\PSoC4/GLCD_SPIM_UDB.c **** *  Will stay in this routine until all data has been sent.  May get locked in
 956:.\Generated_Source\PSoC4/GLCD_SPIM_UDB.c **** *  this loop if data is not being initiated by the master if there is not
 957:.\Generated_Source\PSoC4/GLCD_SPIM_UDB.c **** *  enough room in the TX FIFO.
 958:.\Generated_Source\PSoC4/GLCD_SPIM_UDB.c **** *
 959:.\Generated_Source\PSoC4/GLCD_SPIM_UDB.c **** * Reentrant:
 960:.\Generated_Source\PSoC4/GLCD_SPIM_UDB.c **** *  No.
 961:.\Generated_Source\PSoC4/GLCD_SPIM_UDB.c **** *
 962:.\Generated_Source\PSoC4/GLCD_SPIM_UDB.c **** *******************************************************************************/
 963:.\Generated_Source\PSoC4/GLCD_SPIM_UDB.c **** void GLCD_SPIM_UDB_PutArray(const uint16 buffer[], uint8 byteCount)
 964:.\Generated_Source\PSoC4/GLCD_SPIM_UDB.c ****                                                                           
 965:.\Generated_Source\PSoC4/GLCD_SPIM_UDB.c **** {
 887              		.loc 1 965 0
 888              		.cfi_startproc
 889 0000 80B5     		push	{r7, lr}
 890              	.LCFI47:
 891              		.cfi_def_cfa_offset 8
 892              		.cfi_offset 7, -8
 893              		.cfi_offset 14, -4
 894 0002 84B0     		sub	sp, sp, #16
 895              	.LCFI48:
 896              		.cfi_def_cfa_offset 24
 897 0004 00AF     		add	r7, sp, #0
 898              	.LCFI49:
 899              		.cfi_def_cfa_register 7
 900 0006 7860     		str	r0, [r7, #4]
 901 0008 0A1C     		mov	r2, r1
 902 000a FB1C     		add	r3, r7, #3
 903 000c 1A70     		strb	r2, [r3]
 966:.\Generated_Source\PSoC4/GLCD_SPIM_UDB.c ****     uint8 bufIndex;
 967:.\Generated_Source\PSoC4/GLCD_SPIM_UDB.c **** 
 968:.\Generated_Source\PSoC4/GLCD_SPIM_UDB.c ****     bufIndex = 0u;
 904              		.loc 1 968 0
 905 000e 3B1C     		mov	r3, r7
 906 0010 0F33     		add	r3, r3, #15
 907 0012 0022     		mov	r2, #0
 908 0014 1A70     		strb	r2, [r3]
 969:.\Generated_Source\PSoC4/GLCD_SPIM_UDB.c **** 
 970:.\Generated_Source\PSoC4/GLCD_SPIM_UDB.c ****     while(byteCount > 0u)
 909              		.loc 1 970 0
 910 0016 15E0     		b	.L62
ARM GAS  C:\Users\Colin\AppData\Local\Temp\ccYoaoge.s 			page 34


 911              	.L63:
 971:.\Generated_Source\PSoC4/GLCD_SPIM_UDB.c ****     {
 972:.\Generated_Source\PSoC4/GLCD_SPIM_UDB.c ****         GLCD_SPIM_UDB_WriteTxData(buffer[bufIndex]);
 912              		.loc 1 972 0
 913 0018 3B1C     		mov	r3, r7
 914 001a 0F33     		add	r3, r3, #15
 915 001c 1B78     		ldrb	r3, [r3]
 916 001e 5B00     		lsl	r3, r3, #1
 917 0020 7A68     		ldr	r2, [r7, #4]
 918 0022 D318     		add	r3, r2, r3
 919 0024 1B88     		ldrh	r3, [r3]
 920 0026 181C     		mov	r0, r3
 921 0028 FFF7FEFF 		bl	GLCD_SPIM_UDB_WriteTxData
 973:.\Generated_Source\PSoC4/GLCD_SPIM_UDB.c ****         bufIndex++;
 922              		.loc 1 973 0
 923 002c 3B1C     		mov	r3, r7
 924 002e 0F33     		add	r3, r3, #15
 925 0030 3A1C     		mov	r2, r7
 926 0032 0F32     		add	r2, r2, #15
 927 0034 1278     		ldrb	r2, [r2]
 928 0036 0132     		add	r2, r2, #1
 929 0038 1A70     		strb	r2, [r3]
 974:.\Generated_Source\PSoC4/GLCD_SPIM_UDB.c ****         byteCount--;
 930              		.loc 1 974 0
 931 003a FB1C     		add	r3, r7, #3
 932 003c FA1C     		add	r2, r7, #3
 933 003e 1278     		ldrb	r2, [r2]
 934 0040 013A     		sub	r2, r2, #1
 935 0042 1A70     		strb	r2, [r3]
 936              	.L62:
 970:.\Generated_Source\PSoC4/GLCD_SPIM_UDB.c ****     while(byteCount > 0u)
 937              		.loc 1 970 0 discriminator 1
 938 0044 FB1C     		add	r3, r7, #3
 939 0046 1B78     		ldrb	r3, [r3]
 940 0048 002B     		cmp	r3, #0
 941 004a E5D1     		bne	.L63
 975:.\Generated_Source\PSoC4/GLCD_SPIM_UDB.c ****     }
 976:.\Generated_Source\PSoC4/GLCD_SPIM_UDB.c **** }
 942              		.loc 1 976 0
 943 004c BD46     		mov	sp, r7
 944 004e 04B0     		add	sp, sp, #16
 945              		@ sp needed for prologue
 946 0050 80BD     		pop	{r7, pc}
 947              		.cfi_endproc
 948              	.LFE18:
 949              		.size	GLCD_SPIM_UDB_PutArray, .-GLCD_SPIM_UDB_PutArray
 950 0052 C046     		.section	.text.GLCD_SPIM_UDB_ClearFIFO,"ax",%progbits
 951              		.align	2
 952              		.global	GLCD_SPIM_UDB_ClearFIFO
 953              		.code	16
 954              		.thumb_func
 955              		.type	GLCD_SPIM_UDB_ClearFIFO, %function
 956              	GLCD_SPIM_UDB_ClearFIFO:
 957              	.LFB19:
 977:.\Generated_Source\PSoC4/GLCD_SPIM_UDB.c **** 
 978:.\Generated_Source\PSoC4/GLCD_SPIM_UDB.c **** 
 979:.\Generated_Source\PSoC4/GLCD_SPIM_UDB.c **** /*******************************************************************************
ARM GAS  C:\Users\Colin\AppData\Local\Temp\ccYoaoge.s 			page 35


 980:.\Generated_Source\PSoC4/GLCD_SPIM_UDB.c **** * Function Name: GLCD_SPIM_UDB_ClearFIFO
 981:.\Generated_Source\PSoC4/GLCD_SPIM_UDB.c **** ********************************************************************************
 982:.\Generated_Source\PSoC4/GLCD_SPIM_UDB.c **** *
 983:.\Generated_Source\PSoC4/GLCD_SPIM_UDB.c **** * Summary:
 984:.\Generated_Source\PSoC4/GLCD_SPIM_UDB.c **** *  Clear the RX and TX FIFO's of all data for a fresh start.
 985:.\Generated_Source\PSoC4/GLCD_SPIM_UDB.c **** *
 986:.\Generated_Source\PSoC4/GLCD_SPIM_UDB.c **** * Parameters:
 987:.\Generated_Source\PSoC4/GLCD_SPIM_UDB.c **** *  None.
 988:.\Generated_Source\PSoC4/GLCD_SPIM_UDB.c **** *
 989:.\Generated_Source\PSoC4/GLCD_SPIM_UDB.c **** * Return:
 990:.\Generated_Source\PSoC4/GLCD_SPIM_UDB.c **** *  None.
 991:.\Generated_Source\PSoC4/GLCD_SPIM_UDB.c **** *
 992:.\Generated_Source\PSoC4/GLCD_SPIM_UDB.c **** * Side Effects:
 993:.\Generated_Source\PSoC4/GLCD_SPIM_UDB.c **** *  Clear status register of the component.
 994:.\Generated_Source\PSoC4/GLCD_SPIM_UDB.c **** *
 995:.\Generated_Source\PSoC4/GLCD_SPIM_UDB.c **** *******************************************************************************/
 996:.\Generated_Source\PSoC4/GLCD_SPIM_UDB.c **** void GLCD_SPIM_UDB_ClearFIFO(void) 
 997:.\Generated_Source\PSoC4/GLCD_SPIM_UDB.c **** {
 958              		.loc 1 997 0
 959              		.cfi_startproc
 960 0000 90B5     		push	{r4, r7, lr}
 961              	.LCFI50:
 962              		.cfi_def_cfa_offset 12
 963              		.cfi_offset 4, -12
 964              		.cfi_offset 7, -8
 965              		.cfi_offset 14, -4
 966 0002 83B0     		sub	sp, sp, #12
 967              	.LCFI51:
 968              		.cfi_def_cfa_offset 24
 969 0004 00AF     		add	r7, sp, #0
 970              	.LCFI52:
 971              		.cfi_def_cfa_register 7
 998:.\Generated_Source\PSoC4/GLCD_SPIM_UDB.c ****     uint8 enableInterrupts;
 999:.\Generated_Source\PSoC4/GLCD_SPIM_UDB.c **** 
1000:.\Generated_Source\PSoC4/GLCD_SPIM_UDB.c ****     /* Clear Hardware RX FIFO */
1001:.\Generated_Source\PSoC4/GLCD_SPIM_UDB.c ****     while(0u !=(GLCD_SPIM_UDB_RX_STATUS_REG & GLCD_SPIM_UDB_STS_RX_FIFO_NOT_EMPTY))
 972              		.loc 1 1001 0
 973 0006 01E0     		b	.L65
 974              	.L66:
1002:.\Generated_Source\PSoC4/GLCD_SPIM_UDB.c ****     {
1003:.\Generated_Source\PSoC4/GLCD_SPIM_UDB.c ****         (void) CY_GET_REG16(GLCD_SPIM_UDB_RXDATA_PTR);
 975              		.loc 1 1003 0
 976 0008 1A4B     		ldr	r3, .L67
 977 000a 1B88     		ldrh	r3, [r3]
 978              	.L65:
1001:.\Generated_Source\PSoC4/GLCD_SPIM_UDB.c ****     while(0u !=(GLCD_SPIM_UDB_RX_STATUS_REG & GLCD_SPIM_UDB_STS_RX_FIFO_NOT_EMPTY))
 979              		.loc 1 1001 0 discriminator 1
 980 000c 1A4B     		ldr	r3, .L67+4
 981 000e 1B78     		ldrb	r3, [r3]
 982 0010 DBB2     		uxtb	r3, r3
 983 0012 1A1C     		mov	r2, r3
 984 0014 2023     		mov	r3, #32
 985 0016 1340     		and	r3, r2
 986 0018 F6D1     		bne	.L66
1004:.\Generated_Source\PSoC4/GLCD_SPIM_UDB.c ****     }
1005:.\Generated_Source\PSoC4/GLCD_SPIM_UDB.c **** 
1006:.\Generated_Source\PSoC4/GLCD_SPIM_UDB.c ****     enableInterrupts = CyEnterCriticalSection();
ARM GAS  C:\Users\Colin\AppData\Local\Temp\ccYoaoge.s 			page 36


 987              		.loc 1 1006 0
 988 001a FC1D     		add	r4, r7, #7
 989 001c FFF7FEFF 		bl	CyEnterCriticalSection
 990 0020 031C     		mov	r3, r0
 991 0022 2370     		strb	r3, [r4]
1007:.\Generated_Source\PSoC4/GLCD_SPIM_UDB.c ****     /* Clear TX FIFO */
1008:.\Generated_Source\PSoC4/GLCD_SPIM_UDB.c ****     GLCD_SPIM_UDB_AUX_CONTROL_DP0_REG |= ((uint8)  GLCD_SPIM_UDB_TX_FIFO_CLR);
 992              		.loc 1 1008 0
 993 0024 154B     		ldr	r3, .L67+8
 994 0026 154A     		ldr	r2, .L67+8
 995 0028 1278     		ldrb	r2, [r2]
 996 002a D2B2     		uxtb	r2, r2
 997 002c 0121     		mov	r1, #1
 998 002e 0A43     		orr	r2, r1
 999 0030 D2B2     		uxtb	r2, r2
 1000 0032 1A70     		strb	r2, [r3]
1009:.\Generated_Source\PSoC4/GLCD_SPIM_UDB.c ****     GLCD_SPIM_UDB_AUX_CONTROL_DP0_REG &= ((uint8) ~GLCD_SPIM_UDB_TX_FIFO_CLR);
 1001              		.loc 1 1009 0
 1002 0034 114B     		ldr	r3, .L67+8
 1003 0036 114A     		ldr	r2, .L67+8
 1004 0038 1278     		ldrb	r2, [r2]
 1005 003a D2B2     		uxtb	r2, r2
 1006 003c 0121     		mov	r1, #1
 1007 003e 8A43     		bic	r2, r1
 1008 0040 D2B2     		uxtb	r2, r2
 1009 0042 1A70     		strb	r2, [r3]
1010:.\Generated_Source\PSoC4/GLCD_SPIM_UDB.c **** 
1011:.\Generated_Source\PSoC4/GLCD_SPIM_UDB.c ****     #if(GLCD_SPIM_UDB_USE_SECOND_DATAPATH)
1012:.\Generated_Source\PSoC4/GLCD_SPIM_UDB.c ****         /* Clear TX FIFO for 2nd Datapath */
1013:.\Generated_Source\PSoC4/GLCD_SPIM_UDB.c ****         GLCD_SPIM_UDB_AUX_CONTROL_DP1_REG |= ((uint8)  GLCD_SPIM_UDB_TX_FIFO_CLR);
 1010              		.loc 1 1013 0
 1011 0044 0E4B     		ldr	r3, .L67+12
 1012 0046 0E4A     		ldr	r2, .L67+12
 1013 0048 1278     		ldrb	r2, [r2]
 1014 004a D2B2     		uxtb	r2, r2
 1015 004c 0121     		mov	r1, #1
 1016 004e 0A43     		orr	r2, r1
 1017 0050 D2B2     		uxtb	r2, r2
 1018 0052 1A70     		strb	r2, [r3]
1014:.\Generated_Source\PSoC4/GLCD_SPIM_UDB.c ****         GLCD_SPIM_UDB_AUX_CONTROL_DP1_REG &= ((uint8) ~GLCD_SPIM_UDB_TX_FIFO_CLR);
 1019              		.loc 1 1014 0
 1020 0054 0A4B     		ldr	r3, .L67+12
 1021 0056 0A4A     		ldr	r2, .L67+12
 1022 0058 1278     		ldrb	r2, [r2]
 1023 005a D2B2     		uxtb	r2, r2
 1024 005c 0121     		mov	r1, #1
 1025 005e 8A43     		bic	r2, r1
 1026 0060 D2B2     		uxtb	r2, r2
 1027 0062 1A70     		strb	r2, [r3]
1015:.\Generated_Source\PSoC4/GLCD_SPIM_UDB.c ****     #endif /* (GLCD_SPIM_UDB_USE_SECOND_DATAPATH) */
1016:.\Generated_Source\PSoC4/GLCD_SPIM_UDB.c ****     CyExitCriticalSection(enableInterrupts);
 1028              		.loc 1 1016 0
 1029 0064 FB1D     		add	r3, r7, #7
 1030 0066 1B78     		ldrb	r3, [r3]
 1031 0068 181C     		mov	r0, r3
 1032 006a FFF7FEFF 		bl	CyExitCriticalSection
1017:.\Generated_Source\PSoC4/GLCD_SPIM_UDB.c **** }
ARM GAS  C:\Users\Colin\AppData\Local\Temp\ccYoaoge.s 			page 37


 1033              		.loc 1 1017 0
 1034 006e BD46     		mov	sp, r7
 1035 0070 03B0     		add	sp, sp, #12
 1036              		@ sp needed for prologue
 1037 0072 90BD     		pop	{r4, r7, pc}
 1038              	.L68:
 1039              		.align	2
 1040              	.L67:
 1041 0074 A4100F40 		.word	1074729124
 1042 0078 60000F40 		.word	1074724960
 1043 007c 92000F40 		.word	1074725010
 1044 0080 93000F40 		.word	1074725011
 1045              		.cfi_endproc
 1046              	.LFE19:
 1047              		.size	GLCD_SPIM_UDB_ClearFIFO, .-GLCD_SPIM_UDB_ClearFIFO
 1048              		.section	.text.GLCD_SPIM_UDB_EnableInt,"ax",%progbits
 1049              		.align	2
 1050              		.global	GLCD_SPIM_UDB_EnableInt
 1051              		.code	16
 1052              		.thumb_func
 1053              		.type	GLCD_SPIM_UDB_EnableInt, %function
 1054              	GLCD_SPIM_UDB_EnableInt:
 1055              	.LFB20:
1018:.\Generated_Source\PSoC4/GLCD_SPIM_UDB.c **** 
1019:.\Generated_Source\PSoC4/GLCD_SPIM_UDB.c **** 
1020:.\Generated_Source\PSoC4/GLCD_SPIM_UDB.c **** /* Following functions are for version Compatibility, they are obsolete.
1021:.\Generated_Source\PSoC4/GLCD_SPIM_UDB.c **** *  Please do not use it in new projects.
1022:.\Generated_Source\PSoC4/GLCD_SPIM_UDB.c **** */
1023:.\Generated_Source\PSoC4/GLCD_SPIM_UDB.c **** 
1024:.\Generated_Source\PSoC4/GLCD_SPIM_UDB.c **** 
1025:.\Generated_Source\PSoC4/GLCD_SPIM_UDB.c **** /*******************************************************************************
1026:.\Generated_Source\PSoC4/GLCD_SPIM_UDB.c **** * Function Name: GLCD_SPIM_UDB_EnableInt
1027:.\Generated_Source\PSoC4/GLCD_SPIM_UDB.c **** ********************************************************************************
1028:.\Generated_Source\PSoC4/GLCD_SPIM_UDB.c **** *
1029:.\Generated_Source\PSoC4/GLCD_SPIM_UDB.c **** * Summary:
1030:.\Generated_Source\PSoC4/GLCD_SPIM_UDB.c **** *  Enable internal interrupt generation.
1031:.\Generated_Source\PSoC4/GLCD_SPIM_UDB.c **** *
1032:.\Generated_Source\PSoC4/GLCD_SPIM_UDB.c **** * Parameters:
1033:.\Generated_Source\PSoC4/GLCD_SPIM_UDB.c **** *  None.
1034:.\Generated_Source\PSoC4/GLCD_SPIM_UDB.c **** *
1035:.\Generated_Source\PSoC4/GLCD_SPIM_UDB.c **** * Return:
1036:.\Generated_Source\PSoC4/GLCD_SPIM_UDB.c **** *  None.
1037:.\Generated_Source\PSoC4/GLCD_SPIM_UDB.c **** *
1038:.\Generated_Source\PSoC4/GLCD_SPIM_UDB.c **** * Theory:
1039:.\Generated_Source\PSoC4/GLCD_SPIM_UDB.c **** *  Enable the internal interrupt output -or- the interrupt component itself.
1040:.\Generated_Source\PSoC4/GLCD_SPIM_UDB.c **** *
1041:.\Generated_Source\PSoC4/GLCD_SPIM_UDB.c **** *******************************************************************************/
1042:.\Generated_Source\PSoC4/GLCD_SPIM_UDB.c **** void GLCD_SPIM_UDB_EnableInt(void) 
1043:.\Generated_Source\PSoC4/GLCD_SPIM_UDB.c **** {
 1056              		.loc 1 1043 0
 1057              		.cfi_startproc
 1058 0000 80B5     		push	{r7, lr}
 1059              	.LCFI53:
 1060              		.cfi_def_cfa_offset 8
 1061              		.cfi_offset 7, -8
 1062              		.cfi_offset 14, -4
 1063 0002 00AF     		add	r7, sp, #0
ARM GAS  C:\Users\Colin\AppData\Local\Temp\ccYoaoge.s 			page 38


 1064              	.LCFI54:
 1065              		.cfi_def_cfa_register 7
1044:.\Generated_Source\PSoC4/GLCD_SPIM_UDB.c ****     GLCD_SPIM_UDB_EnableRxInt();
 1066              		.loc 1 1044 0
 1067 0004 FFF7FEFF 		bl	GLCD_SPIM_UDB_EnableRxInt
1045:.\Generated_Source\PSoC4/GLCD_SPIM_UDB.c ****     GLCD_SPIM_UDB_EnableTxInt();
 1068              		.loc 1 1045 0
 1069 0008 FFF7FEFF 		bl	GLCD_SPIM_UDB_EnableTxInt
1046:.\Generated_Source\PSoC4/GLCD_SPIM_UDB.c **** }
 1070              		.loc 1 1046 0
 1071 000c BD46     		mov	sp, r7
 1072              		@ sp needed for prologue
 1073 000e 80BD     		pop	{r7, pc}
 1074              		.cfi_endproc
 1075              	.LFE20:
 1076              		.size	GLCD_SPIM_UDB_EnableInt, .-GLCD_SPIM_UDB_EnableInt
 1077              		.section	.text.GLCD_SPIM_UDB_DisableInt,"ax",%progbits
 1078              		.align	2
 1079              		.global	GLCD_SPIM_UDB_DisableInt
 1080              		.code	16
 1081              		.thumb_func
 1082              		.type	GLCD_SPIM_UDB_DisableInt, %function
 1083              	GLCD_SPIM_UDB_DisableInt:
 1084              	.LFB21:
1047:.\Generated_Source\PSoC4/GLCD_SPIM_UDB.c **** 
1048:.\Generated_Source\PSoC4/GLCD_SPIM_UDB.c **** 
1049:.\Generated_Source\PSoC4/GLCD_SPIM_UDB.c **** /*******************************************************************************
1050:.\Generated_Source\PSoC4/GLCD_SPIM_UDB.c **** * Function Name: GLCD_SPIM_UDB_DisableInt
1051:.\Generated_Source\PSoC4/GLCD_SPIM_UDB.c **** ********************************************************************************
1052:.\Generated_Source\PSoC4/GLCD_SPIM_UDB.c **** *
1053:.\Generated_Source\PSoC4/GLCD_SPIM_UDB.c **** * Summary:
1054:.\Generated_Source\PSoC4/GLCD_SPIM_UDB.c **** *  Disable internal interrupt generation.
1055:.\Generated_Source\PSoC4/GLCD_SPIM_UDB.c **** *
1056:.\Generated_Source\PSoC4/GLCD_SPIM_UDB.c **** * Parameters:
1057:.\Generated_Source\PSoC4/GLCD_SPIM_UDB.c **** *  None.
1058:.\Generated_Source\PSoC4/GLCD_SPIM_UDB.c **** *
1059:.\Generated_Source\PSoC4/GLCD_SPIM_UDB.c **** * Return:
1060:.\Generated_Source\PSoC4/GLCD_SPIM_UDB.c **** *  None.
1061:.\Generated_Source\PSoC4/GLCD_SPIM_UDB.c **** *
1062:.\Generated_Source\PSoC4/GLCD_SPIM_UDB.c **** * Theory:
1063:.\Generated_Source\PSoC4/GLCD_SPIM_UDB.c **** *  Disable the internal interrupt output -or- the interrupt component itself.
1064:.\Generated_Source\PSoC4/GLCD_SPIM_UDB.c **** *
1065:.\Generated_Source\PSoC4/GLCD_SPIM_UDB.c **** *******************************************************************************/
1066:.\Generated_Source\PSoC4/GLCD_SPIM_UDB.c **** void GLCD_SPIM_UDB_DisableInt(void) 
1067:.\Generated_Source\PSoC4/GLCD_SPIM_UDB.c **** {
 1085              		.loc 1 1067 0
 1086              		.cfi_startproc
 1087 0000 80B5     		push	{r7, lr}
 1088              	.LCFI55:
 1089              		.cfi_def_cfa_offset 8
 1090              		.cfi_offset 7, -8
 1091              		.cfi_offset 14, -4
 1092 0002 00AF     		add	r7, sp, #0
 1093              	.LCFI56:
 1094              		.cfi_def_cfa_register 7
1068:.\Generated_Source\PSoC4/GLCD_SPIM_UDB.c ****     GLCD_SPIM_UDB_DisableTxInt();
 1095              		.loc 1 1068 0
ARM GAS  C:\Users\Colin\AppData\Local\Temp\ccYoaoge.s 			page 39


 1096 0004 FFF7FEFF 		bl	GLCD_SPIM_UDB_DisableTxInt
1069:.\Generated_Source\PSoC4/GLCD_SPIM_UDB.c ****     GLCD_SPIM_UDB_DisableRxInt();
 1097              		.loc 1 1069 0
 1098 0008 FFF7FEFF 		bl	GLCD_SPIM_UDB_DisableRxInt
1070:.\Generated_Source\PSoC4/GLCD_SPIM_UDB.c **** }
 1099              		.loc 1 1070 0
 1100 000c BD46     		mov	sp, r7
 1101              		@ sp needed for prologue
 1102 000e 80BD     		pop	{r7, pc}
 1103              		.cfi_endproc
 1104              	.LFE21:
 1105              		.size	GLCD_SPIM_UDB_DisableInt, .-GLCD_SPIM_UDB_DisableInt
 1106              		.section	.text.GLCD_SPIM_UDB_SetInterruptMode,"ax",%progbits
 1107              		.align	2
 1108              		.global	GLCD_SPIM_UDB_SetInterruptMode
 1109              		.code	16
 1110              		.thumb_func
 1111              		.type	GLCD_SPIM_UDB_SetInterruptMode, %function
 1112              	GLCD_SPIM_UDB_SetInterruptMode:
 1113              	.LFB22:
1071:.\Generated_Source\PSoC4/GLCD_SPIM_UDB.c **** 
1072:.\Generated_Source\PSoC4/GLCD_SPIM_UDB.c **** 
1073:.\Generated_Source\PSoC4/GLCD_SPIM_UDB.c **** /*******************************************************************************
1074:.\Generated_Source\PSoC4/GLCD_SPIM_UDB.c **** * Function Name: GLCD_SPIM_UDB_SetInterruptMode
1075:.\Generated_Source\PSoC4/GLCD_SPIM_UDB.c **** ********************************************************************************
1076:.\Generated_Source\PSoC4/GLCD_SPIM_UDB.c **** *
1077:.\Generated_Source\PSoC4/GLCD_SPIM_UDB.c **** * Summary:
1078:.\Generated_Source\PSoC4/GLCD_SPIM_UDB.c **** *  Configure which status bits trigger an interrupt event.
1079:.\Generated_Source\PSoC4/GLCD_SPIM_UDB.c **** *
1080:.\Generated_Source\PSoC4/GLCD_SPIM_UDB.c **** * Parameters:
1081:.\Generated_Source\PSoC4/GLCD_SPIM_UDB.c **** *  intSrc: An or'd combination of the desired status bit masks (defined in the
1082:.\Generated_Source\PSoC4/GLCD_SPIM_UDB.c **** *  header file).
1083:.\Generated_Source\PSoC4/GLCD_SPIM_UDB.c **** *
1084:.\Generated_Source\PSoC4/GLCD_SPIM_UDB.c **** * Return:
1085:.\Generated_Source\PSoC4/GLCD_SPIM_UDB.c **** *  None.
1086:.\Generated_Source\PSoC4/GLCD_SPIM_UDB.c **** *
1087:.\Generated_Source\PSoC4/GLCD_SPIM_UDB.c **** * Theory:
1088:.\Generated_Source\PSoC4/GLCD_SPIM_UDB.c **** *  Enables the output of specific status bits to the interrupt controller.
1089:.\Generated_Source\PSoC4/GLCD_SPIM_UDB.c **** *
1090:.\Generated_Source\PSoC4/GLCD_SPIM_UDB.c **** *******************************************************************************/
1091:.\Generated_Source\PSoC4/GLCD_SPIM_UDB.c **** void GLCD_SPIM_UDB_SetInterruptMode(uint8 intSrc) 
1092:.\Generated_Source\PSoC4/GLCD_SPIM_UDB.c **** {
 1114              		.loc 1 1092 0
 1115              		.cfi_startproc
 1116 0000 80B5     		push	{r7, lr}
 1117              	.LCFI57:
 1118              		.cfi_def_cfa_offset 8
 1119              		.cfi_offset 7, -8
 1120              		.cfi_offset 14, -4
 1121 0002 82B0     		sub	sp, sp, #8
 1122              	.LCFI58:
 1123              		.cfi_def_cfa_offset 16
 1124 0004 00AF     		add	r7, sp, #0
 1125              	.LCFI59:
 1126              		.cfi_def_cfa_register 7
 1127 0006 021C     		mov	r2, r0
 1128 0008 FB1D     		add	r3, r7, #7
ARM GAS  C:\Users\Colin\AppData\Local\Temp\ccYoaoge.s 			page 40


 1129 000a 1A70     		strb	r2, [r3]
1093:.\Generated_Source\PSoC4/GLCD_SPIM_UDB.c ****     GLCD_SPIM_UDB_TX_STATUS_MASK_REG  = (intSrc & ((uint8) ~GLCD_SPIM_UDB_STS_SPI_IDLE));
 1130              		.loc 1 1093 0
 1131 000c 064B     		ldr	r3, .L72
 1132 000e FA1D     		add	r2, r7, #7
 1133 0010 1278     		ldrb	r2, [r2]
 1134 0012 1021     		mov	r1, #16
 1135 0014 8A43     		bic	r2, r1
 1136 0016 D2B2     		uxtb	r2, r2
 1137 0018 1A70     		strb	r2, [r3]
1094:.\Generated_Source\PSoC4/GLCD_SPIM_UDB.c ****     GLCD_SPIM_UDB_RX_STATUS_MASK_REG  =  intSrc;
 1138              		.loc 1 1094 0
 1139 001a 044B     		ldr	r3, .L72+4
 1140 001c FA1D     		add	r2, r7, #7
 1141 001e 1278     		ldrb	r2, [r2]
 1142 0020 1A70     		strb	r2, [r3]
1095:.\Generated_Source\PSoC4/GLCD_SPIM_UDB.c **** }
 1143              		.loc 1 1095 0
 1144 0022 BD46     		mov	sp, r7
 1145 0024 02B0     		add	sp, sp, #8
 1146              		@ sp needed for prologue
 1147 0026 80BD     		pop	{r7, pc}
 1148              	.L73:
 1149              		.align	2
 1150              	.L72:
 1151 0028 82000F40 		.word	1074724994
 1152 002c 80000F40 		.word	1074724992
 1153              		.cfi_endproc
 1154              	.LFE22:
 1155              		.size	GLCD_SPIM_UDB_SetInterruptMode, .-GLCD_SPIM_UDB_SetInterruptMode
 1156              		.section	.text.GLCD_SPIM_UDB_ReadStatus,"ax",%progbits
 1157              		.align	2
 1158              		.global	GLCD_SPIM_UDB_ReadStatus
 1159              		.code	16
 1160              		.thumb_func
 1161              		.type	GLCD_SPIM_UDB_ReadStatus, %function
 1162              	GLCD_SPIM_UDB_ReadStatus:
 1163              	.LFB23:
1096:.\Generated_Source\PSoC4/GLCD_SPIM_UDB.c **** 
1097:.\Generated_Source\PSoC4/GLCD_SPIM_UDB.c **** 
1098:.\Generated_Source\PSoC4/GLCD_SPIM_UDB.c **** /*******************************************************************************
1099:.\Generated_Source\PSoC4/GLCD_SPIM_UDB.c **** * Function Name: GLCD_SPIM_UDB_ReadStatus
1100:.\Generated_Source\PSoC4/GLCD_SPIM_UDB.c **** ********************************************************************************
1101:.\Generated_Source\PSoC4/GLCD_SPIM_UDB.c **** *
1102:.\Generated_Source\PSoC4/GLCD_SPIM_UDB.c **** * Summary:
1103:.\Generated_Source\PSoC4/GLCD_SPIM_UDB.c **** *  Read the status register for the component.
1104:.\Generated_Source\PSoC4/GLCD_SPIM_UDB.c **** *
1105:.\Generated_Source\PSoC4/GLCD_SPIM_UDB.c **** * Parameters:
1106:.\Generated_Source\PSoC4/GLCD_SPIM_UDB.c **** *  None.
1107:.\Generated_Source\PSoC4/GLCD_SPIM_UDB.c **** *
1108:.\Generated_Source\PSoC4/GLCD_SPIM_UDB.c **** * Return:
1109:.\Generated_Source\PSoC4/GLCD_SPIM_UDB.c **** *  Contents of the status register.
1110:.\Generated_Source\PSoC4/GLCD_SPIM_UDB.c **** *
1111:.\Generated_Source\PSoC4/GLCD_SPIM_UDB.c **** * Global variables:
1112:.\Generated_Source\PSoC4/GLCD_SPIM_UDB.c **** *  GLCD_SPIM_UDB_swStatus - used to store in software status register,
1113:.\Generated_Source\PSoC4/GLCD_SPIM_UDB.c **** *  modified every function call - resets to zero.
1114:.\Generated_Source\PSoC4/GLCD_SPIM_UDB.c **** *
ARM GAS  C:\Users\Colin\AppData\Local\Temp\ccYoaoge.s 			page 41


1115:.\Generated_Source\PSoC4/GLCD_SPIM_UDB.c **** * Theory:
1116:.\Generated_Source\PSoC4/GLCD_SPIM_UDB.c **** *  Allows the user and the API to read the status register for error detection
1117:.\Generated_Source\PSoC4/GLCD_SPIM_UDB.c **** *  and flow control.
1118:.\Generated_Source\PSoC4/GLCD_SPIM_UDB.c **** *
1119:.\Generated_Source\PSoC4/GLCD_SPIM_UDB.c **** * Side Effects:
1120:.\Generated_Source\PSoC4/GLCD_SPIM_UDB.c **** *  Clear status register of the component.
1121:.\Generated_Source\PSoC4/GLCD_SPIM_UDB.c **** *
1122:.\Generated_Source\PSoC4/GLCD_SPIM_UDB.c **** * Reentrant:
1123:.\Generated_Source\PSoC4/GLCD_SPIM_UDB.c **** *  No.
1124:.\Generated_Source\PSoC4/GLCD_SPIM_UDB.c **** *
1125:.\Generated_Source\PSoC4/GLCD_SPIM_UDB.c **** *******************************************************************************/
1126:.\Generated_Source\PSoC4/GLCD_SPIM_UDB.c **** uint8 GLCD_SPIM_UDB_ReadStatus(void) 
1127:.\Generated_Source\PSoC4/GLCD_SPIM_UDB.c **** {
 1164              		.loc 1 1127 0
 1165              		.cfi_startproc
 1166 0000 80B5     		push	{r7, lr}
 1167              	.LCFI60:
 1168              		.cfi_def_cfa_offset 8
 1169              		.cfi_offset 7, -8
 1170              		.cfi_offset 14, -4
 1171 0002 82B0     		sub	sp, sp, #8
 1172              	.LCFI61:
 1173              		.cfi_def_cfa_offset 16
 1174 0004 00AF     		add	r7, sp, #0
 1175              	.LCFI62:
 1176              		.cfi_def_cfa_register 7
1128:.\Generated_Source\PSoC4/GLCD_SPIM_UDB.c ****     uint8 tmpStatus;
1129:.\Generated_Source\PSoC4/GLCD_SPIM_UDB.c **** 
1130:.\Generated_Source\PSoC4/GLCD_SPIM_UDB.c ****     #if(GLCD_SPIM_UDB_TX_SOFTWARE_BUF_ENABLED || GLCD_SPIM_UDB_RX_SOFTWARE_BUF_ENABLED)
1131:.\Generated_Source\PSoC4/GLCD_SPIM_UDB.c **** 
1132:.\Generated_Source\PSoC4/GLCD_SPIM_UDB.c ****         GLCD_SPIM_UDB_DisableInt();
1133:.\Generated_Source\PSoC4/GLCD_SPIM_UDB.c **** 
1134:.\Generated_Source\PSoC4/GLCD_SPIM_UDB.c ****         tmpStatus  = GLCD_SPIM_UDB_GET_STATUS_RX(GLCD_SPIM_UDB_swStatusRx);
1135:.\Generated_Source\PSoC4/GLCD_SPIM_UDB.c ****         tmpStatus |= GLCD_SPIM_UDB_GET_STATUS_TX(GLCD_SPIM_UDB_swStatusTx);
1136:.\Generated_Source\PSoC4/GLCD_SPIM_UDB.c ****         tmpStatus &= ((uint8) ~GLCD_SPIM_UDB_STS_SPI_IDLE);
1137:.\Generated_Source\PSoC4/GLCD_SPIM_UDB.c **** 
1138:.\Generated_Source\PSoC4/GLCD_SPIM_UDB.c ****         GLCD_SPIM_UDB_swStatusTx = 0u;
1139:.\Generated_Source\PSoC4/GLCD_SPIM_UDB.c ****         GLCD_SPIM_UDB_swStatusRx = 0u;
1140:.\Generated_Source\PSoC4/GLCD_SPIM_UDB.c **** 
1141:.\Generated_Source\PSoC4/GLCD_SPIM_UDB.c ****         GLCD_SPIM_UDB_EnableInt();
1142:.\Generated_Source\PSoC4/GLCD_SPIM_UDB.c **** 
1143:.\Generated_Source\PSoC4/GLCD_SPIM_UDB.c ****     #else
1144:.\Generated_Source\PSoC4/GLCD_SPIM_UDB.c **** 
1145:.\Generated_Source\PSoC4/GLCD_SPIM_UDB.c ****         tmpStatus  = GLCD_SPIM_UDB_RX_STATUS_REG;
 1177              		.loc 1 1145 0
 1178 0006 0C4A     		ldr	r2, .L76
 1179 0008 FB1D     		add	r3, r7, #7
 1180 000a 1278     		ldrb	r2, [r2]
 1181 000c 1A70     		strb	r2, [r3]
1146:.\Generated_Source\PSoC4/GLCD_SPIM_UDB.c ****         tmpStatus |= GLCD_SPIM_UDB_TX_STATUS_REG;
 1182              		.loc 1 1146 0
 1183 000e 0B4B     		ldr	r3, .L76+4
 1184 0010 1B78     		ldrb	r3, [r3]
 1185 0012 D9B2     		uxtb	r1, r3
 1186 0014 FB1D     		add	r3, r7, #7
 1187 0016 FA1D     		add	r2, r7, #7
 1188 0018 1278     		ldrb	r2, [r2]
ARM GAS  C:\Users\Colin\AppData\Local\Temp\ccYoaoge.s 			page 42


 1189 001a 0A43     		orr	r2, r1
 1190 001c 1A70     		strb	r2, [r3]
1147:.\Generated_Source\PSoC4/GLCD_SPIM_UDB.c ****         tmpStatus &= ((uint8) ~GLCD_SPIM_UDB_STS_SPI_IDLE);
 1191              		.loc 1 1147 0
 1192 001e FB1D     		add	r3, r7, #7
 1193 0020 FA1D     		add	r2, r7, #7
 1194 0022 1278     		ldrb	r2, [r2]
 1195 0024 1021     		mov	r1, #16
 1196 0026 8A43     		bic	r2, r1
 1197 0028 1A70     		strb	r2, [r3]
1148:.\Generated_Source\PSoC4/GLCD_SPIM_UDB.c **** 
1149:.\Generated_Source\PSoC4/GLCD_SPIM_UDB.c ****     #endif /* (GLCD_SPIM_UDB_TX_SOFTWARE_BUF_ENABLED || GLCD_SPIM_UDB_RX_SOFTWARE_BUF_ENABLED) */
1150:.\Generated_Source\PSoC4/GLCD_SPIM_UDB.c **** 
1151:.\Generated_Source\PSoC4/GLCD_SPIM_UDB.c ****     return(tmpStatus);
 1198              		.loc 1 1151 0
 1199 002a FB1D     		add	r3, r7, #7
 1200 002c 1B78     		ldrb	r3, [r3]
1152:.\Generated_Source\PSoC4/GLCD_SPIM_UDB.c **** }
 1201              		.loc 1 1152 0
 1202 002e 181C     		mov	r0, r3
 1203 0030 BD46     		mov	sp, r7
 1204 0032 02B0     		add	sp, sp, #8
 1205              		@ sp needed for prologue
 1206 0034 80BD     		pop	{r7, pc}
 1207              	.L77:
 1208 0036 C046     		.align	2
 1209              	.L76:
 1210 0038 60000F40 		.word	1074724960
 1211 003c 62000F40 		.word	1074724962
 1212              		.cfi_endproc
 1213              	.LFE23:
 1214              		.size	GLCD_SPIM_UDB_ReadStatus, .-GLCD_SPIM_UDB_ReadStatus
 1215              		.text
 1216              	.Letext0:
 1217              		.file 2 ".\\Generated_Source\\PSoC4\\cytypes.h"
 1218              		.section	.debug_info,"",%progbits
 1219              	.Ldebug_info0:
 1220 0000 81040000 		.4byte	0x481
 1221 0004 0200     		.2byte	0x2
 1222 0006 00000000 		.4byte	.Ldebug_abbrev0
 1223 000a 04       		.byte	0x4
 1224 000b 01       		.uleb128 0x1
 1225 000c 7F030000 		.4byte	.LASF53
 1226 0010 01       		.byte	0x1
 1227 0011 9B020000 		.4byte	.LASF54
 1228 0015 A9010000 		.4byte	.LASF55
 1229 0019 00000000 		.4byte	.Ldebug_ranges0+0
 1230 001d 00000000 		.4byte	0
 1231 0021 00000000 		.4byte	0
 1232 0025 00000000 		.4byte	.Ldebug_line0
 1233 0029 02       		.uleb128 0x2
 1234 002a 01       		.byte	0x1
 1235 002b 06       		.byte	0x6
 1236 002c F4030000 		.4byte	.LASF0
 1237 0030 02       		.uleb128 0x2
 1238 0031 01       		.byte	0x1
 1239 0032 08       		.byte	0x8
ARM GAS  C:\Users\Colin\AppData\Local\Temp\ccYoaoge.s 			page 43


 1240 0033 ED010000 		.4byte	.LASF1
 1241 0037 02       		.uleb128 0x2
 1242 0038 02       		.byte	0x2
 1243 0039 05       		.byte	0x5
 1244 003a 57030000 		.4byte	.LASF2
 1245 003e 02       		.uleb128 0x2
 1246 003f 02       		.byte	0x2
 1247 0040 07       		.byte	0x7
 1248 0041 2E000000 		.4byte	.LASF3
 1249 0045 02       		.uleb128 0x2
 1250 0046 04       		.byte	0x4
 1251 0047 05       		.byte	0x5
 1252 0048 E1030000 		.4byte	.LASF4
 1253 004c 02       		.uleb128 0x2
 1254 004d 04       		.byte	0x4
 1255 004e 07       		.byte	0x7
 1256 004f 5E010000 		.4byte	.LASF5
 1257 0053 02       		.uleb128 0x2
 1258 0054 08       		.byte	0x8
 1259 0055 05       		.byte	0x5
 1260 0056 33030000 		.4byte	.LASF6
 1261 005a 02       		.uleb128 0x2
 1262 005b 08       		.byte	0x8
 1263 005c 07       		.byte	0x7
 1264 005d C4020000 		.4byte	.LASF7
 1265 0061 03       		.uleb128 0x3
 1266 0062 04       		.byte	0x4
 1267 0063 05       		.byte	0x5
 1268 0064 696E7400 		.ascii	"int\000"
 1269 0068 02       		.uleb128 0x2
 1270 0069 04       		.byte	0x4
 1271 006a 07       		.byte	0x7
 1272 006b 8E020000 		.4byte	.LASF8
 1273 006f 04       		.uleb128 0x4
 1274 0070 70010000 		.4byte	.LASF9
 1275 0074 02       		.byte	0x2
 1276 0075 5B       		.byte	0x5b
 1277 0076 30000000 		.4byte	0x30
 1278 007a 04       		.uleb128 0x4
 1279 007b 3F020000 		.4byte	.LASF10
 1280 007f 02       		.byte	0x2
 1281 0080 5C       		.byte	0x5c
 1282 0081 3E000000 		.4byte	0x3e
 1283 0085 02       		.uleb128 0x2
 1284 0086 04       		.byte	0x4
 1285 0087 04       		.byte	0x4
 1286 0088 18010000 		.4byte	.LASF11
 1287 008c 02       		.uleb128 0x2
 1288 008d 08       		.byte	0x8
 1289 008e 04       		.byte	0x4
 1290 008f FB010000 		.4byte	.LASF12
 1291 0093 02       		.uleb128 0x2
 1292 0094 01       		.byte	0x1
 1293 0095 08       		.byte	0x8
 1294 0096 06000000 		.4byte	.LASF13
 1295 009a 04       		.uleb128 0x4
 1296 009b 59010000 		.4byte	.LASF14
ARM GAS  C:\Users\Colin\AppData\Local\Temp\ccYoaoge.s 			page 44


 1297 009f 02       		.byte	0x2
 1298 00a0 F0       		.byte	0xf0
 1299 00a1 A5000000 		.4byte	0xa5
 1300 00a5 05       		.uleb128 0x5
 1301 00a6 6F000000 		.4byte	0x6f
 1302 00aa 04       		.uleb128 0x4
 1303 00ab 00000000 		.4byte	.LASF15
 1304 00af 02       		.byte	0x2
 1305 00b0 F1       		.byte	0xf1
 1306 00b1 B5000000 		.4byte	0xb5
 1307 00b5 05       		.uleb128 0x5
 1308 00b6 7A000000 		.4byte	0x7a
 1309 00ba 02       		.uleb128 0x2
 1310 00bb 04       		.byte	0x4
 1311 00bc 07       		.byte	0x7
 1312 00bd 2A030000 		.4byte	.LASF16
 1313 00c1 06       		.uleb128 0x6
 1314 00c2 01       		.byte	0x1
 1315 00c3 DB020000 		.4byte	.LASF17
 1316 00c7 01       		.byte	0x1
 1317 00c8 3F       		.byte	0x3f
 1318 00c9 01       		.byte	0x1
 1319 00ca 00000000 		.4byte	.LFB0
 1320 00ce 34000000 		.4byte	.LFE0
 1321 00d2 00000000 		.4byte	.LLST0
 1322 00d6 01       		.byte	0x1
 1323 00d7 07       		.uleb128 0x7
 1324 00d8 01       		.byte	0x1
 1325 00d9 19040000 		.4byte	.LASF19
 1326 00dd 01       		.byte	0x1
 1327 00de 78       		.byte	0x78
 1328 00df 01       		.byte	0x1
 1329 00e0 00000000 		.4byte	.LFB1
 1330 00e4 68000000 		.4byte	.LFE1
 1331 00e8 2C000000 		.4byte	.LLST1
 1332 00ec 01       		.byte	0x1
 1333 00ed 00010000 		.4byte	0x100
 1334 00f1 08       		.uleb128 0x8
 1335 00f2 98010000 		.4byte	.LASF21
 1336 00f6 01       		.byte	0x1
 1337 00f7 7A       		.byte	0x7a
 1338 00f8 6F000000 		.4byte	0x6f
 1339 00fc 02       		.byte	0x2
 1340 00fd 91       		.byte	0x91
 1341 00fe 6F       		.sleb128 -17
 1342 00ff 00       		.byte	0
 1343 0100 06       		.uleb128 0x6
 1344 0101 01       		.byte	0x1
 1345 0102 5F020000 		.4byte	.LASF18
 1346 0106 01       		.byte	0x1
 1347 0107 A3       		.byte	0xa3
 1348 0108 01       		.byte	0x1
 1349 0109 00000000 		.4byte	.LFB2
 1350 010d 24000000 		.4byte	.LFE2
 1351 0111 64000000 		.4byte	.LLST2
 1352 0115 01       		.byte	0x1
 1353 0116 07       		.uleb128 0x7
ARM GAS  C:\Users\Colin\AppData\Local\Temp\ccYoaoge.s 			page 45


 1354 0117 01       		.byte	0x1
 1355 0118 2E040000 		.4byte	.LASF20
 1356 011c 01       		.byte	0x1
 1357 011d C0       		.byte	0xc0
 1358 011e 01       		.byte	0x1
 1359 011f 00000000 		.4byte	.LFB3
 1360 0123 54000000 		.4byte	.LFE3
 1361 0127 90000000 		.4byte	.LLST3
 1362 012b 01       		.byte	0x1
 1363 012c 3F010000 		.4byte	0x13f
 1364 0130 08       		.uleb128 0x8
 1365 0131 98010000 		.4byte	.LASF21
 1366 0135 01       		.byte	0x1
 1367 0136 C2       		.byte	0xc2
 1368 0137 6F000000 		.4byte	0x6f
 1369 013b 02       		.byte	0x2
 1370 013c 91       		.byte	0x91
 1371 013d 6F       		.sleb128 -17
 1372 013e 00       		.byte	0
 1373 013f 09       		.uleb128 0x9
 1374 0140 01       		.byte	0x1
 1375 0141 5A040000 		.4byte	.LASF22
 1376 0145 01       		.byte	0x1
 1377 0146 E3       		.byte	0xe3
 1378 0147 01       		.byte	0x1
 1379 0148 00000000 		.4byte	.LFB4
 1380 014c 08000000 		.4byte	.LFE4
 1381 0150 C8000000 		.4byte	.LLST4
 1382 0154 01       		.byte	0x1
 1383 0155 09       		.uleb128 0x9
 1384 0156 01       		.byte	0x1
 1385 0157 25020000 		.4byte	.LASF23
 1386 015b 01       		.byte	0x1
 1387 015c FC       		.byte	0xfc
 1388 015d 01       		.byte	0x1
 1389 015e 00000000 		.4byte	.LFB5
 1390 0162 08000000 		.4byte	.LFE5
 1391 0166 F4000000 		.4byte	.LLST5
 1392 016a 01       		.byte	0x1
 1393 016b 0A       		.uleb128 0xa
 1394 016c 01       		.byte	0x1
 1395 016d 39010000 		.4byte	.LASF24
 1396 0171 01       		.byte	0x1
 1397 0172 1501     		.2byte	0x115
 1398 0174 01       		.byte	0x1
 1399 0175 00000000 		.4byte	.LFB6
 1400 0179 08000000 		.4byte	.LFE6
 1401 017d 20010000 		.4byte	.LLST6
 1402 0181 01       		.byte	0x1
 1403 0182 0A       		.uleb128 0xa
 1404 0183 01       		.byte	0x1
 1405 0184 1E010000 		.4byte	.LASF25
 1406 0188 01       		.byte	0x1
 1407 0189 2E01     		.2byte	0x12e
 1408 018b 01       		.byte	0x1
 1409 018c 00000000 		.4byte	.LFB7
 1410 0190 08000000 		.4byte	.LFE7
ARM GAS  C:\Users\Colin\AppData\Local\Temp\ccYoaoge.s 			page 46


 1411 0194 4C010000 		.4byte	.LLST7
 1412 0198 01       		.byte	0x1
 1413 0199 0B       		.uleb128 0xb
 1414 019a 01       		.byte	0x1
 1415 019b CF000000 		.4byte	.LASF26
 1416 019f 01       		.byte	0x1
 1417 01a0 4801     		.2byte	0x148
 1418 01a2 01       		.byte	0x1
 1419 01a3 00000000 		.4byte	.LFB8
 1420 01a7 20000000 		.4byte	.LFE8
 1421 01ab 78010000 		.4byte	.LLST8
 1422 01af 01       		.byte	0x1
 1423 01b0 C4010000 		.4byte	0x1c4
 1424 01b4 0C       		.uleb128 0xc
 1425 01b5 02020000 		.4byte	.LASF28
 1426 01b9 01       		.byte	0x1
 1427 01ba 4801     		.2byte	0x148
 1428 01bc 6F000000 		.4byte	0x6f
 1429 01c0 02       		.byte	0x2
 1430 01c1 91       		.byte	0x91
 1431 01c2 77       		.sleb128 -9
 1432 01c3 00       		.byte	0
 1433 01c4 0B       		.uleb128 0xb
 1434 01c5 01       		.byte	0x1
 1435 01c6 F7000000 		.4byte	.LASF27
 1436 01ca 01       		.byte	0x1
 1437 01cb 6001     		.2byte	0x160
 1438 01cd 01       		.byte	0x1
 1439 01ce 00000000 		.4byte	.LFB9
 1440 01d2 20000000 		.4byte	.LFE9
 1441 01d6 B0010000 		.4byte	.LLST9
 1442 01da 01       		.byte	0x1
 1443 01db EF010000 		.4byte	0x1ef
 1444 01df 0C       		.uleb128 0xc
 1445 01e0 02020000 		.4byte	.LASF28
 1446 01e4 01       		.byte	0x1
 1447 01e5 6001     		.2byte	0x160
 1448 01e7 6F000000 		.4byte	0x6f
 1449 01eb 02       		.byte	0x2
 1450 01ec 91       		.byte	0x91
 1451 01ed 77       		.sleb128 -9
 1452 01ee 00       		.byte	0
 1453 01ef 0D       		.uleb128 0xd
 1454 01f0 01       		.byte	0x1
 1455 01f1 73020000 		.4byte	.LASF30
 1456 01f5 01       		.byte	0x1
 1457 01f6 8201     		.2byte	0x182
 1458 01f8 01       		.byte	0x1
 1459 01f9 6F000000 		.4byte	0x6f
 1460 01fd 00000000 		.4byte	.LFB10
 1461 0201 20000000 		.4byte	.LFE10
 1462 0205 E8010000 		.4byte	.LLST10
 1463 0209 01       		.byte	0x1
 1464 020a 1E020000 		.4byte	0x21e
 1465 020e 0E       		.uleb128 0xe
 1466 020f EA030000 		.4byte	.LASF29
 1467 0213 01       		.byte	0x1
ARM GAS  C:\Users\Colin\AppData\Local\Temp\ccYoaoge.s 			page 47


 1468 0214 8401     		.2byte	0x184
 1469 0216 6F000000 		.4byte	0x6f
 1470 021a 02       		.byte	0x2
 1471 021b 91       		.byte	0x91
 1472 021c 77       		.sleb128 -9
 1473 021d 00       		.byte	0
 1474 021e 0D       		.uleb128 0xd
 1475 021f 01       		.byte	0x1
 1476 0220 96000000 		.4byte	.LASF31
 1477 0224 01       		.byte	0x1
 1478 0225 B501     		.2byte	0x1b5
 1479 0227 01       		.byte	0x1
 1480 0228 6F000000 		.4byte	0x6f
 1481 022c 00000000 		.4byte	.LFB11
 1482 0230 20000000 		.4byte	.LFE11
 1483 0234 20020000 		.4byte	.LLST11
 1484 0238 01       		.byte	0x1
 1485 0239 4D020000 		.4byte	0x24d
 1486 023d 0E       		.uleb128 0xe
 1487 023e EA030000 		.4byte	.LASF29
 1488 0242 01       		.byte	0x1
 1489 0243 B701     		.2byte	0x1b7
 1490 0245 6F000000 		.4byte	0x6f
 1491 0249 02       		.byte	0x2
 1492 024a 91       		.byte	0x91
 1493 024b 77       		.sleb128 -9
 1494 024c 00       		.byte	0
 1495 024d 0B       		.uleb128 0xb
 1496 024e 01       		.byte	0x1
 1497 024f 10030000 		.4byte	.LASF32
 1498 0253 01       		.byte	0x1
 1499 0254 EE01     		.2byte	0x1ee
 1500 0256 01       		.byte	0x1
 1501 0257 00000000 		.4byte	.LFB12
 1502 025b 34000000 		.4byte	.LFE12
 1503 025f 58020000 		.4byte	.LLST12
 1504 0263 01       		.byte	0x1
 1505 0264 78020000 		.4byte	0x278
 1506 0268 0C       		.uleb128 0xc
 1507 0269 0B000000 		.4byte	.LASF33
 1508 026d 01       		.byte	0x1
 1509 026e EE01     		.2byte	0x1ee
 1510 0270 7A000000 		.4byte	0x7a
 1511 0274 02       		.byte	0x2
 1512 0275 91       		.byte	0x91
 1513 0276 76       		.sleb128 -10
 1514 0277 00       		.byte	0
 1515 0278 0D       		.uleb128 0xd
 1516 0279 01       		.byte	0x1
 1517 027a C8030000 		.4byte	.LASF34
 1518 027e 01       		.byte	0x1
 1519 027f 5B02     		.2byte	0x25b
 1520 0281 01       		.byte	0x1
 1521 0282 7A000000 		.4byte	0x7a
 1522 0286 00000000 		.4byte	.LFB13
 1523 028a 20000000 		.4byte	.LFE13
 1524 028e 90020000 		.4byte	.LLST13
ARM GAS  C:\Users\Colin\AppData\Local\Temp\ccYoaoge.s 			page 48


 1525 0292 01       		.byte	0x1
 1526 0293 A7020000 		.4byte	0x2a7
 1527 0297 0E       		.uleb128 0xe
 1528 0298 F0000000 		.4byte	.LASF35
 1529 029c 01       		.byte	0x1
 1530 029d 5D02     		.2byte	0x25d
 1531 029f 7A000000 		.4byte	0x7a
 1532 02a3 02       		.byte	0x2
 1533 02a4 91       		.byte	0x91
 1534 02a5 76       		.sleb128 -10
 1535 02a6 00       		.byte	0
 1536 02a7 0D       		.uleb128 0xd
 1537 02a8 01       		.byte	0x1
 1538 02a9 B1000000 		.4byte	.LASF36
 1539 02ad 01       		.byte	0x1
 1540 02ae 9B02     		.2byte	0x29b
 1541 02b0 01       		.byte	0x1
 1542 02b1 6F000000 		.4byte	0x6f
 1543 02b5 00000000 		.4byte	.LFB14
 1544 02b9 30000000 		.4byte	.LFE14
 1545 02bd C8020000 		.4byte	.LLST14
 1546 02c1 01       		.byte	0x1
 1547 02c2 D6020000 		.4byte	0x2d6
 1548 02c6 0E       		.uleb128 0xe
 1549 02c7 54010000 		.4byte	.LASF37
 1550 02cb 01       		.byte	0x1
 1551 02cc 9D02     		.2byte	0x29d
 1552 02ce 6F000000 		.4byte	0x6f
 1553 02d2 02       		.byte	0x2
 1554 02d3 91       		.byte	0x91
 1555 02d4 77       		.sleb128 -9
 1556 02d5 00       		.byte	0
 1557 02d6 0D       		.uleb128 0xd
 1558 02d7 01       		.byte	0x1
 1559 02d8 78000000 		.4byte	.LASF38
 1560 02dc 01       		.byte	0x1
 1561 02dd D802     		.2byte	0x2d8
 1562 02df 01       		.byte	0x1
 1563 02e0 6F000000 		.4byte	0x6f
 1564 02e4 00000000 		.4byte	.LFB15
 1565 02e8 48000000 		.4byte	.LFE15
 1566 02ec 00030000 		.4byte	.LLST15
 1567 02f0 01       		.byte	0x1
 1568 02f1 05030000 		.4byte	0x305
 1569 02f5 0E       		.uleb128 0xe
 1570 02f6 54010000 		.4byte	.LASF37
 1571 02fa 01       		.byte	0x1
 1572 02fb DA02     		.2byte	0x2da
 1573 02fd 6F000000 		.4byte	0x6f
 1574 0301 02       		.byte	0x2
 1575 0302 91       		.byte	0x91
 1576 0303 77       		.sleb128 -9
 1577 0304 00       		.byte	0
 1578 0305 0A       		.uleb128 0xa
 1579 0306 01       		.byte	0x1
 1580 0307 09020000 		.4byte	.LASF39
 1581 030b 01       		.byte	0x1
ARM GAS  C:\Users\Colin\AppData\Local\Temp\ccYoaoge.s 			page 49


 1582 030c 2703     		.2byte	0x327
 1583 030e 01       		.byte	0x1
 1584 030f 00000000 		.4byte	.LFB16
 1585 0313 24000000 		.4byte	.LFE16
 1586 0317 38030000 		.4byte	.LLST16
 1587 031b 01       		.byte	0x1
 1588 031c 0F       		.uleb128 0xf
 1589 031d 01       		.byte	0x1
 1590 031e 12000000 		.4byte	.LASF40
 1591 0322 01       		.byte	0x1
 1592 0323 5E03     		.2byte	0x35e
 1593 0325 01       		.byte	0x1
 1594 0326 00000000 		.4byte	.LFB17
 1595 032a 68000000 		.4byte	.LFE17
 1596 032e 64030000 		.4byte	.LLST17
 1597 0332 01       		.byte	0x1
 1598 0333 47030000 		.4byte	0x347
 1599 0337 0E       		.uleb128 0xe
 1600 0338 98010000 		.4byte	.LASF21
 1601 033c 01       		.byte	0x1
 1602 033d 6003     		.2byte	0x360
 1603 033f 6F000000 		.4byte	0x6f
 1604 0343 02       		.byte	0x2
 1605 0344 91       		.byte	0x91
 1606 0345 6F       		.sleb128 -17
 1607 0346 00       		.byte	0
 1608 0347 0F       		.uleb128 0xf
 1609 0348 01       		.byte	0x1
 1610 0349 61030000 		.4byte	.LASF41
 1611 034d 01       		.byte	0x1
 1612 034e C303     		.2byte	0x3c3
 1613 0350 01       		.byte	0x1
 1614 0351 00000000 		.4byte	.LFB18
 1615 0355 52000000 		.4byte	.LFE18
 1616 0359 9C030000 		.4byte	.LLST18
 1617 035d 01       		.byte	0x1
 1618 035e 90030000 		.4byte	0x390
 1619 0362 0C       		.uleb128 0xc
 1620 0363 78030000 		.4byte	.LASF42
 1621 0367 01       		.byte	0x1
 1622 0368 C303     		.2byte	0x3c3
 1623 036a 90030000 		.4byte	0x390
 1624 036e 02       		.byte	0x2
 1625 036f 91       		.byte	0x91
 1626 0370 6C       		.sleb128 -20
 1627 0371 0C       		.uleb128 0xc
 1628 0372 8E010000 		.4byte	.LASF43
 1629 0376 01       		.byte	0x1
 1630 0377 C303     		.2byte	0x3c3
 1631 0379 6F000000 		.4byte	0x6f
 1632 037d 02       		.byte	0x2
 1633 037e 91       		.byte	0x91
 1634 037f 6B       		.sleb128 -21
 1635 0380 0E       		.uleb128 0xe
 1636 0381 EE020000 		.4byte	.LASF44
 1637 0385 01       		.byte	0x1
 1638 0386 C603     		.2byte	0x3c6
ARM GAS  C:\Users\Colin\AppData\Local\Temp\ccYoaoge.s 			page 50


 1639 0388 6F000000 		.4byte	0x6f
 1640 038c 02       		.byte	0x2
 1641 038d 91       		.byte	0x91
 1642 038e 77       		.sleb128 -9
 1643 038f 00       		.byte	0
 1644 0390 10       		.uleb128 0x10
 1645 0391 04       		.byte	0x4
 1646 0392 96030000 		.4byte	0x396
 1647 0396 11       		.uleb128 0x11
 1648 0397 7A000000 		.4byte	0x7a
 1649 039b 0F       		.uleb128 0xf
 1650 039c 01       		.byte	0x1
 1651 039d 76010000 		.4byte	.LASF45
 1652 03a1 01       		.byte	0x1
 1653 03a2 E403     		.2byte	0x3e4
 1654 03a4 01       		.byte	0x1
 1655 03a5 00000000 		.4byte	.LFB19
 1656 03a9 84000000 		.4byte	.LFE19
 1657 03ad D4030000 		.4byte	.LLST19
 1658 03b1 01       		.byte	0x1
 1659 03b2 C6030000 		.4byte	0x3c6
 1660 03b6 0E       		.uleb128 0xe
 1661 03b7 98010000 		.4byte	.LASF21
 1662 03bb 01       		.byte	0x1
 1663 03bc E603     		.2byte	0x3e6
 1664 03be 6F000000 		.4byte	0x6f
 1665 03c2 02       		.byte	0x2
 1666 03c3 91       		.byte	0x91
 1667 03c4 6F       		.sleb128 -17
 1668 03c5 00       		.byte	0
 1669 03c6 12       		.uleb128 0x12
 1670 03c7 01       		.byte	0x1
 1671 03c8 60000000 		.4byte	.LASF46
 1672 03cc 01       		.byte	0x1
 1673 03cd 1204     		.2byte	0x412
 1674 03cf 01       		.byte	0x1
 1675 03d0 00000000 		.4byte	.LFB20
 1676 03d4 10000000 		.4byte	.LFE20
 1677 03d8 0C040000 		.4byte	.LLST20
 1678 03dc 01       		.byte	0x1
 1679 03dd 12       		.uleb128 0x12
 1680 03de 01       		.byte	0x1
 1681 03df 46020000 		.4byte	.LASF47
 1682 03e3 01       		.byte	0x1
 1683 03e4 2A04     		.2byte	0x42a
 1684 03e6 01       		.byte	0x1
 1685 03e7 00000000 		.4byte	.LFB21
 1686 03eb 10000000 		.4byte	.LFE21
 1687 03ef 38040000 		.4byte	.LLST21
 1688 03f3 01       		.byte	0x1
 1689 03f4 0B       		.uleb128 0xb
 1690 03f5 01       		.byte	0x1
 1691 03f6 41000000 		.4byte	.LASF48
 1692 03fa 01       		.byte	0x1
 1693 03fb 4304     		.2byte	0x443
 1694 03fd 01       		.byte	0x1
 1695 03fe 00000000 		.4byte	.LFB22
ARM GAS  C:\Users\Colin\AppData\Local\Temp\ccYoaoge.s 			page 51


 1696 0402 30000000 		.4byte	.LFE22
 1697 0406 64040000 		.4byte	.LLST22
 1698 040a 01       		.byte	0x1
 1699 040b 1F040000 		.4byte	0x41f
 1700 040f 0C       		.uleb128 0xc
 1701 0410 02020000 		.4byte	.LASF28
 1702 0414 01       		.byte	0x1
 1703 0415 4304     		.2byte	0x443
 1704 0417 6F000000 		.4byte	0x6f
 1705 041b 02       		.byte	0x2
 1706 041c 91       		.byte	0x91
 1707 041d 77       		.sleb128 -9
 1708 041e 00       		.byte	0
 1709 041f 0D       		.uleb128 0xd
 1710 0420 01       		.byte	0x1
 1711 0421 F7020000 		.4byte	.LASF49
 1712 0425 01       		.byte	0x1
 1713 0426 6604     		.2byte	0x466
 1714 0428 01       		.byte	0x1
 1715 0429 6F000000 		.4byte	0x6f
 1716 042d 00000000 		.4byte	.LFB23
 1717 0431 40000000 		.4byte	.LFE23
 1718 0435 9C040000 		.4byte	.LLST23
 1719 0439 01       		.byte	0x1
 1720 043a 4E040000 		.4byte	0x44e
 1721 043e 0E       		.uleb128 0xe
 1722 043f EA030000 		.4byte	.LASF29
 1723 0443 01       		.byte	0x1
 1724 0444 6804     		.2byte	0x468
 1725 0446 6F000000 		.4byte	0x6f
 1726 044a 02       		.byte	0x2
 1727 044b 91       		.byte	0x91
 1728 044c 77       		.sleb128 -9
 1729 044d 00       		.byte	0
 1730 044e 13       		.uleb128 0x13
 1731 044f 41030000 		.4byte	.LASF50
 1732 0453 01       		.byte	0x1
 1733 0454 22       		.byte	0x22
 1734 0455 6F000000 		.4byte	0x6f
 1735 0459 01       		.byte	0x1
 1736 045a 05       		.byte	0x5
 1737 045b 03       		.byte	0x3
 1738 045c 00000000 		.4byte	GLCD_SPIM_UDB_initVar
 1739 0460 13       		.uleb128 0x13
 1740 0461 41040000 		.4byte	.LASF51
 1741 0465 01       		.byte	0x1
 1742 0466 24       		.byte	0x24
 1743 0467 A5000000 		.4byte	0xa5
 1744 046b 01       		.byte	0x1
 1745 046c 05       		.byte	0x5
 1746 046d 03       		.byte	0x3
 1747 046e 00000000 		.4byte	GLCD_SPIM_UDB_swStatusTx
 1748 0472 13       		.uleb128 0x13
 1749 0473 00040000 		.4byte	.LASF52
 1750 0477 01       		.byte	0x1
 1751 0478 25       		.byte	0x25
 1752 0479 A5000000 		.4byte	0xa5
ARM GAS  C:\Users\Colin\AppData\Local\Temp\ccYoaoge.s 			page 52


 1753 047d 01       		.byte	0x1
 1754 047e 05       		.byte	0x5
 1755 047f 03       		.byte	0x3
 1756 0480 00000000 		.4byte	GLCD_SPIM_UDB_swStatusRx
 1757 0484 00       		.byte	0
 1758              		.section	.debug_abbrev,"",%progbits
 1759              	.Ldebug_abbrev0:
 1760 0000 01       		.uleb128 0x1
 1761 0001 11       		.uleb128 0x11
 1762 0002 01       		.byte	0x1
 1763 0003 25       		.uleb128 0x25
 1764 0004 0E       		.uleb128 0xe
 1765 0005 13       		.uleb128 0x13
 1766 0006 0B       		.uleb128 0xb
 1767 0007 03       		.uleb128 0x3
 1768 0008 0E       		.uleb128 0xe
 1769 0009 1B       		.uleb128 0x1b
 1770 000a 0E       		.uleb128 0xe
 1771 000b 55       		.uleb128 0x55
 1772 000c 06       		.uleb128 0x6
 1773 000d 11       		.uleb128 0x11
 1774 000e 01       		.uleb128 0x1
 1775 000f 52       		.uleb128 0x52
 1776 0010 01       		.uleb128 0x1
 1777 0011 10       		.uleb128 0x10
 1778 0012 06       		.uleb128 0x6
 1779 0013 00       		.byte	0
 1780 0014 00       		.byte	0
 1781 0015 02       		.uleb128 0x2
 1782 0016 24       		.uleb128 0x24
 1783 0017 00       		.byte	0
 1784 0018 0B       		.uleb128 0xb
 1785 0019 0B       		.uleb128 0xb
 1786 001a 3E       		.uleb128 0x3e
 1787 001b 0B       		.uleb128 0xb
 1788 001c 03       		.uleb128 0x3
 1789 001d 0E       		.uleb128 0xe
 1790 001e 00       		.byte	0
 1791 001f 00       		.byte	0
 1792 0020 03       		.uleb128 0x3
 1793 0021 24       		.uleb128 0x24
 1794 0022 00       		.byte	0
 1795 0023 0B       		.uleb128 0xb
 1796 0024 0B       		.uleb128 0xb
 1797 0025 3E       		.uleb128 0x3e
 1798 0026 0B       		.uleb128 0xb
 1799 0027 03       		.uleb128 0x3
 1800 0028 08       		.uleb128 0x8
 1801 0029 00       		.byte	0
 1802 002a 00       		.byte	0
 1803 002b 04       		.uleb128 0x4
 1804 002c 16       		.uleb128 0x16
 1805 002d 00       		.byte	0
 1806 002e 03       		.uleb128 0x3
 1807 002f 0E       		.uleb128 0xe
 1808 0030 3A       		.uleb128 0x3a
 1809 0031 0B       		.uleb128 0xb
ARM GAS  C:\Users\Colin\AppData\Local\Temp\ccYoaoge.s 			page 53


 1810 0032 3B       		.uleb128 0x3b
 1811 0033 0B       		.uleb128 0xb
 1812 0034 49       		.uleb128 0x49
 1813 0035 13       		.uleb128 0x13
 1814 0036 00       		.byte	0
 1815 0037 00       		.byte	0
 1816 0038 05       		.uleb128 0x5
 1817 0039 35       		.uleb128 0x35
 1818 003a 00       		.byte	0
 1819 003b 49       		.uleb128 0x49
 1820 003c 13       		.uleb128 0x13
 1821 003d 00       		.byte	0
 1822 003e 00       		.byte	0
 1823 003f 06       		.uleb128 0x6
 1824 0040 2E       		.uleb128 0x2e
 1825 0041 00       		.byte	0
 1826 0042 3F       		.uleb128 0x3f
 1827 0043 0C       		.uleb128 0xc
 1828 0044 03       		.uleb128 0x3
 1829 0045 0E       		.uleb128 0xe
 1830 0046 3A       		.uleb128 0x3a
 1831 0047 0B       		.uleb128 0xb
 1832 0048 3B       		.uleb128 0x3b
 1833 0049 0B       		.uleb128 0xb
 1834 004a 27       		.uleb128 0x27
 1835 004b 0C       		.uleb128 0xc
 1836 004c 11       		.uleb128 0x11
 1837 004d 01       		.uleb128 0x1
 1838 004e 12       		.uleb128 0x12
 1839 004f 01       		.uleb128 0x1
 1840 0050 40       		.uleb128 0x40
 1841 0051 06       		.uleb128 0x6
 1842 0052 9642     		.uleb128 0x2116
 1843 0054 0C       		.uleb128 0xc
 1844 0055 00       		.byte	0
 1845 0056 00       		.byte	0
 1846 0057 07       		.uleb128 0x7
 1847 0058 2E       		.uleb128 0x2e
 1848 0059 01       		.byte	0x1
 1849 005a 3F       		.uleb128 0x3f
 1850 005b 0C       		.uleb128 0xc
 1851 005c 03       		.uleb128 0x3
 1852 005d 0E       		.uleb128 0xe
 1853 005e 3A       		.uleb128 0x3a
 1854 005f 0B       		.uleb128 0xb
 1855 0060 3B       		.uleb128 0x3b
 1856 0061 0B       		.uleb128 0xb
 1857 0062 27       		.uleb128 0x27
 1858 0063 0C       		.uleb128 0xc
 1859 0064 11       		.uleb128 0x11
 1860 0065 01       		.uleb128 0x1
 1861 0066 12       		.uleb128 0x12
 1862 0067 01       		.uleb128 0x1
 1863 0068 40       		.uleb128 0x40
 1864 0069 06       		.uleb128 0x6
 1865 006a 9642     		.uleb128 0x2116
 1866 006c 0C       		.uleb128 0xc
ARM GAS  C:\Users\Colin\AppData\Local\Temp\ccYoaoge.s 			page 54


 1867 006d 01       		.uleb128 0x1
 1868 006e 13       		.uleb128 0x13
 1869 006f 00       		.byte	0
 1870 0070 00       		.byte	0
 1871 0071 08       		.uleb128 0x8
 1872 0072 34       		.uleb128 0x34
 1873 0073 00       		.byte	0
 1874 0074 03       		.uleb128 0x3
 1875 0075 0E       		.uleb128 0xe
 1876 0076 3A       		.uleb128 0x3a
 1877 0077 0B       		.uleb128 0xb
 1878 0078 3B       		.uleb128 0x3b
 1879 0079 0B       		.uleb128 0xb
 1880 007a 49       		.uleb128 0x49
 1881 007b 13       		.uleb128 0x13
 1882 007c 02       		.uleb128 0x2
 1883 007d 0A       		.uleb128 0xa
 1884 007e 00       		.byte	0
 1885 007f 00       		.byte	0
 1886 0080 09       		.uleb128 0x9
 1887 0081 2E       		.uleb128 0x2e
 1888 0082 00       		.byte	0
 1889 0083 3F       		.uleb128 0x3f
 1890 0084 0C       		.uleb128 0xc
 1891 0085 03       		.uleb128 0x3
 1892 0086 0E       		.uleb128 0xe
 1893 0087 3A       		.uleb128 0x3a
 1894 0088 0B       		.uleb128 0xb
 1895 0089 3B       		.uleb128 0x3b
 1896 008a 0B       		.uleb128 0xb
 1897 008b 27       		.uleb128 0x27
 1898 008c 0C       		.uleb128 0xc
 1899 008d 11       		.uleb128 0x11
 1900 008e 01       		.uleb128 0x1
 1901 008f 12       		.uleb128 0x12
 1902 0090 01       		.uleb128 0x1
 1903 0091 40       		.uleb128 0x40
 1904 0092 06       		.uleb128 0x6
 1905 0093 9742     		.uleb128 0x2117
 1906 0095 0C       		.uleb128 0xc
 1907 0096 00       		.byte	0
 1908 0097 00       		.byte	0
 1909 0098 0A       		.uleb128 0xa
 1910 0099 2E       		.uleb128 0x2e
 1911 009a 00       		.byte	0
 1912 009b 3F       		.uleb128 0x3f
 1913 009c 0C       		.uleb128 0xc
 1914 009d 03       		.uleb128 0x3
 1915 009e 0E       		.uleb128 0xe
 1916 009f 3A       		.uleb128 0x3a
 1917 00a0 0B       		.uleb128 0xb
 1918 00a1 3B       		.uleb128 0x3b
 1919 00a2 05       		.uleb128 0x5
 1920 00a3 27       		.uleb128 0x27
 1921 00a4 0C       		.uleb128 0xc
 1922 00a5 11       		.uleb128 0x11
 1923 00a6 01       		.uleb128 0x1
ARM GAS  C:\Users\Colin\AppData\Local\Temp\ccYoaoge.s 			page 55


 1924 00a7 12       		.uleb128 0x12
 1925 00a8 01       		.uleb128 0x1
 1926 00a9 40       		.uleb128 0x40
 1927 00aa 06       		.uleb128 0x6
 1928 00ab 9742     		.uleb128 0x2117
 1929 00ad 0C       		.uleb128 0xc
 1930 00ae 00       		.byte	0
 1931 00af 00       		.byte	0
 1932 00b0 0B       		.uleb128 0xb
 1933 00b1 2E       		.uleb128 0x2e
 1934 00b2 01       		.byte	0x1
 1935 00b3 3F       		.uleb128 0x3f
 1936 00b4 0C       		.uleb128 0xc
 1937 00b5 03       		.uleb128 0x3
 1938 00b6 0E       		.uleb128 0xe
 1939 00b7 3A       		.uleb128 0x3a
 1940 00b8 0B       		.uleb128 0xb
 1941 00b9 3B       		.uleb128 0x3b
 1942 00ba 05       		.uleb128 0x5
 1943 00bb 27       		.uleb128 0x27
 1944 00bc 0C       		.uleb128 0xc
 1945 00bd 11       		.uleb128 0x11
 1946 00be 01       		.uleb128 0x1
 1947 00bf 12       		.uleb128 0x12
 1948 00c0 01       		.uleb128 0x1
 1949 00c1 40       		.uleb128 0x40
 1950 00c2 06       		.uleb128 0x6
 1951 00c3 9742     		.uleb128 0x2117
 1952 00c5 0C       		.uleb128 0xc
 1953 00c6 01       		.uleb128 0x1
 1954 00c7 13       		.uleb128 0x13
 1955 00c8 00       		.byte	0
 1956 00c9 00       		.byte	0
 1957 00ca 0C       		.uleb128 0xc
 1958 00cb 05       		.uleb128 0x5
 1959 00cc 00       		.byte	0
 1960 00cd 03       		.uleb128 0x3
 1961 00ce 0E       		.uleb128 0xe
 1962 00cf 3A       		.uleb128 0x3a
 1963 00d0 0B       		.uleb128 0xb
 1964 00d1 3B       		.uleb128 0x3b
 1965 00d2 05       		.uleb128 0x5
 1966 00d3 49       		.uleb128 0x49
 1967 00d4 13       		.uleb128 0x13
 1968 00d5 02       		.uleb128 0x2
 1969 00d6 0A       		.uleb128 0xa
 1970 00d7 00       		.byte	0
 1971 00d8 00       		.byte	0
 1972 00d9 0D       		.uleb128 0xd
 1973 00da 2E       		.uleb128 0x2e
 1974 00db 01       		.byte	0x1
 1975 00dc 3F       		.uleb128 0x3f
 1976 00dd 0C       		.uleb128 0xc
 1977 00de 03       		.uleb128 0x3
 1978 00df 0E       		.uleb128 0xe
 1979 00e0 3A       		.uleb128 0x3a
 1980 00e1 0B       		.uleb128 0xb
ARM GAS  C:\Users\Colin\AppData\Local\Temp\ccYoaoge.s 			page 56


 1981 00e2 3B       		.uleb128 0x3b
 1982 00e3 05       		.uleb128 0x5
 1983 00e4 27       		.uleb128 0x27
 1984 00e5 0C       		.uleb128 0xc
 1985 00e6 49       		.uleb128 0x49
 1986 00e7 13       		.uleb128 0x13
 1987 00e8 11       		.uleb128 0x11
 1988 00e9 01       		.uleb128 0x1
 1989 00ea 12       		.uleb128 0x12
 1990 00eb 01       		.uleb128 0x1
 1991 00ec 40       		.uleb128 0x40
 1992 00ed 06       		.uleb128 0x6
 1993 00ee 9742     		.uleb128 0x2117
 1994 00f0 0C       		.uleb128 0xc
 1995 00f1 01       		.uleb128 0x1
 1996 00f2 13       		.uleb128 0x13
 1997 00f3 00       		.byte	0
 1998 00f4 00       		.byte	0
 1999 00f5 0E       		.uleb128 0xe
 2000 00f6 34       		.uleb128 0x34
 2001 00f7 00       		.byte	0
 2002 00f8 03       		.uleb128 0x3
 2003 00f9 0E       		.uleb128 0xe
 2004 00fa 3A       		.uleb128 0x3a
 2005 00fb 0B       		.uleb128 0xb
 2006 00fc 3B       		.uleb128 0x3b
 2007 00fd 05       		.uleb128 0x5
 2008 00fe 49       		.uleb128 0x49
 2009 00ff 13       		.uleb128 0x13
 2010 0100 02       		.uleb128 0x2
 2011 0101 0A       		.uleb128 0xa
 2012 0102 00       		.byte	0
 2013 0103 00       		.byte	0
 2014 0104 0F       		.uleb128 0xf
 2015 0105 2E       		.uleb128 0x2e
 2016 0106 01       		.byte	0x1
 2017 0107 3F       		.uleb128 0x3f
 2018 0108 0C       		.uleb128 0xc
 2019 0109 03       		.uleb128 0x3
 2020 010a 0E       		.uleb128 0xe
 2021 010b 3A       		.uleb128 0x3a
 2022 010c 0B       		.uleb128 0xb
 2023 010d 3B       		.uleb128 0x3b
 2024 010e 05       		.uleb128 0x5
 2025 010f 27       		.uleb128 0x27
 2026 0110 0C       		.uleb128 0xc
 2027 0111 11       		.uleb128 0x11
 2028 0112 01       		.uleb128 0x1
 2029 0113 12       		.uleb128 0x12
 2030 0114 01       		.uleb128 0x1
 2031 0115 40       		.uleb128 0x40
 2032 0116 06       		.uleb128 0x6
 2033 0117 9642     		.uleb128 0x2116
 2034 0119 0C       		.uleb128 0xc
 2035 011a 01       		.uleb128 0x1
 2036 011b 13       		.uleb128 0x13
 2037 011c 00       		.byte	0
ARM GAS  C:\Users\Colin\AppData\Local\Temp\ccYoaoge.s 			page 57


 2038 011d 00       		.byte	0
 2039 011e 10       		.uleb128 0x10
 2040 011f 0F       		.uleb128 0xf
 2041 0120 00       		.byte	0
 2042 0121 0B       		.uleb128 0xb
 2043 0122 0B       		.uleb128 0xb
 2044 0123 49       		.uleb128 0x49
 2045 0124 13       		.uleb128 0x13
 2046 0125 00       		.byte	0
 2047 0126 00       		.byte	0
 2048 0127 11       		.uleb128 0x11
 2049 0128 26       		.uleb128 0x26
 2050 0129 00       		.byte	0
 2051 012a 49       		.uleb128 0x49
 2052 012b 13       		.uleb128 0x13
 2053 012c 00       		.byte	0
 2054 012d 00       		.byte	0
 2055 012e 12       		.uleb128 0x12
 2056 012f 2E       		.uleb128 0x2e
 2057 0130 00       		.byte	0
 2058 0131 3F       		.uleb128 0x3f
 2059 0132 0C       		.uleb128 0xc
 2060 0133 03       		.uleb128 0x3
 2061 0134 0E       		.uleb128 0xe
 2062 0135 3A       		.uleb128 0x3a
 2063 0136 0B       		.uleb128 0xb
 2064 0137 3B       		.uleb128 0x3b
 2065 0138 05       		.uleb128 0x5
 2066 0139 27       		.uleb128 0x27
 2067 013a 0C       		.uleb128 0xc
 2068 013b 11       		.uleb128 0x11
 2069 013c 01       		.uleb128 0x1
 2070 013d 12       		.uleb128 0x12
 2071 013e 01       		.uleb128 0x1
 2072 013f 40       		.uleb128 0x40
 2073 0140 06       		.uleb128 0x6
 2074 0141 9642     		.uleb128 0x2116
 2075 0143 0C       		.uleb128 0xc
 2076 0144 00       		.byte	0
 2077 0145 00       		.byte	0
 2078 0146 13       		.uleb128 0x13
 2079 0147 34       		.uleb128 0x34
 2080 0148 00       		.byte	0
 2081 0149 03       		.uleb128 0x3
 2082 014a 0E       		.uleb128 0xe
 2083 014b 3A       		.uleb128 0x3a
 2084 014c 0B       		.uleb128 0xb
 2085 014d 3B       		.uleb128 0x3b
 2086 014e 0B       		.uleb128 0xb
 2087 014f 49       		.uleb128 0x49
 2088 0150 13       		.uleb128 0x13
 2089 0151 3F       		.uleb128 0x3f
 2090 0152 0C       		.uleb128 0xc
 2091 0153 02       		.uleb128 0x2
 2092 0154 0A       		.uleb128 0xa
 2093 0155 00       		.byte	0
 2094 0156 00       		.byte	0
ARM GAS  C:\Users\Colin\AppData\Local\Temp\ccYoaoge.s 			page 58


 2095 0157 00       		.byte	0
 2096              		.section	.debug_loc,"",%progbits
 2097              	.Ldebug_loc0:
 2098              	.LLST0:
 2099 0000 00000000 		.4byte	.LFB0
 2100 0004 02000000 		.4byte	.LCFI0
 2101 0008 0200     		.2byte	0x2
 2102 000a 7D       		.byte	0x7d
 2103 000b 00       		.sleb128 0
 2104 000c 02000000 		.4byte	.LCFI0
 2105 0010 04000000 		.4byte	.LCFI1
 2106 0014 0200     		.2byte	0x2
 2107 0016 7D       		.byte	0x7d
 2108 0017 08       		.sleb128 8
 2109 0018 04000000 		.4byte	.LCFI1
 2110 001c 34000000 		.4byte	.LFE0
 2111 0020 0200     		.2byte	0x2
 2112 0022 77       		.byte	0x77
 2113 0023 08       		.sleb128 8
 2114 0024 00000000 		.4byte	0
 2115 0028 00000000 		.4byte	0
 2116              	.LLST1:
 2117 002c 00000000 		.4byte	.LFB1
 2118 0030 02000000 		.4byte	.LCFI2
 2119 0034 0200     		.2byte	0x2
 2120 0036 7D       		.byte	0x7d
 2121 0037 00       		.sleb128 0
 2122 0038 02000000 		.4byte	.LCFI2
 2123 003c 04000000 		.4byte	.LCFI3
 2124 0040 0200     		.2byte	0x2
 2125 0042 7D       		.byte	0x7d
 2126 0043 0C       		.sleb128 12
 2127 0044 04000000 		.4byte	.LCFI3
 2128 0048 06000000 		.4byte	.LCFI4
 2129 004c 0200     		.2byte	0x2
 2130 004e 7D       		.byte	0x7d
 2131 004f 18       		.sleb128 24
 2132 0050 06000000 		.4byte	.LCFI4
 2133 0054 68000000 		.4byte	.LFE1
 2134 0058 0200     		.2byte	0x2
 2135 005a 77       		.byte	0x77
 2136 005b 18       		.sleb128 24
 2137 005c 00000000 		.4byte	0
 2138 0060 00000000 		.4byte	0
 2139              	.LLST2:
 2140 0064 00000000 		.4byte	.LFB2
 2141 0068 02000000 		.4byte	.LCFI5
 2142 006c 0200     		.2byte	0x2
 2143 006e 7D       		.byte	0x7d
 2144 006f 00       		.sleb128 0
 2145 0070 02000000 		.4byte	.LCFI5
 2146 0074 04000000 		.4byte	.LCFI6
 2147 0078 0200     		.2byte	0x2
 2148 007a 7D       		.byte	0x7d
 2149 007b 08       		.sleb128 8
 2150 007c 04000000 		.4byte	.LCFI6
 2151 0080 24000000 		.4byte	.LFE2
ARM GAS  C:\Users\Colin\AppData\Local\Temp\ccYoaoge.s 			page 59


 2152 0084 0200     		.2byte	0x2
 2153 0086 77       		.byte	0x77
 2154 0087 08       		.sleb128 8
 2155 0088 00000000 		.4byte	0
 2156 008c 00000000 		.4byte	0
 2157              	.LLST3:
 2158 0090 00000000 		.4byte	.LFB3
 2159 0094 02000000 		.4byte	.LCFI7
 2160 0098 0200     		.2byte	0x2
 2161 009a 7D       		.byte	0x7d
 2162 009b 00       		.sleb128 0
 2163 009c 02000000 		.4byte	.LCFI7
 2164 00a0 04000000 		.4byte	.LCFI8
 2165 00a4 0200     		.2byte	0x2
 2166 00a6 7D       		.byte	0x7d
 2167 00a7 0C       		.sleb128 12
 2168 00a8 04000000 		.4byte	.LCFI8
 2169 00ac 06000000 		.4byte	.LCFI9
 2170 00b0 0200     		.2byte	0x2
 2171 00b2 7D       		.byte	0x7d
 2172 00b3 18       		.sleb128 24
 2173 00b4 06000000 		.4byte	.LCFI9
 2174 00b8 54000000 		.4byte	.LFE3
 2175 00bc 0200     		.2byte	0x2
 2176 00be 77       		.byte	0x77
 2177 00bf 18       		.sleb128 24
 2178 00c0 00000000 		.4byte	0
 2179 00c4 00000000 		.4byte	0
 2180              	.LLST4:
 2181 00c8 00000000 		.4byte	.LFB4
 2182 00cc 02000000 		.4byte	.LCFI10
 2183 00d0 0200     		.2byte	0x2
 2184 00d2 7D       		.byte	0x7d
 2185 00d3 00       		.sleb128 0
 2186 00d4 02000000 		.4byte	.LCFI10
 2187 00d8 04000000 		.4byte	.LCFI11
 2188 00dc 0200     		.2byte	0x2
 2189 00de 7D       		.byte	0x7d
 2190 00df 08       		.sleb128 8
 2191 00e0 04000000 		.4byte	.LCFI11
 2192 00e4 08000000 		.4byte	.LFE4
 2193 00e8 0200     		.2byte	0x2
 2194 00ea 77       		.byte	0x77
 2195 00eb 08       		.sleb128 8
 2196 00ec 00000000 		.4byte	0
 2197 00f0 00000000 		.4byte	0
 2198              	.LLST5:
 2199 00f4 00000000 		.4byte	.LFB5
 2200 00f8 02000000 		.4byte	.LCFI12
 2201 00fc 0200     		.2byte	0x2
 2202 00fe 7D       		.byte	0x7d
 2203 00ff 00       		.sleb128 0
 2204 0100 02000000 		.4byte	.LCFI12
 2205 0104 04000000 		.4byte	.LCFI13
 2206 0108 0200     		.2byte	0x2
 2207 010a 7D       		.byte	0x7d
 2208 010b 08       		.sleb128 8
ARM GAS  C:\Users\Colin\AppData\Local\Temp\ccYoaoge.s 			page 60


 2209 010c 04000000 		.4byte	.LCFI13
 2210 0110 08000000 		.4byte	.LFE5
 2211 0114 0200     		.2byte	0x2
 2212 0116 77       		.byte	0x77
 2213 0117 08       		.sleb128 8
 2214 0118 00000000 		.4byte	0
 2215 011c 00000000 		.4byte	0
 2216              	.LLST6:
 2217 0120 00000000 		.4byte	.LFB6
 2218 0124 02000000 		.4byte	.LCFI14
 2219 0128 0200     		.2byte	0x2
 2220 012a 7D       		.byte	0x7d
 2221 012b 00       		.sleb128 0
 2222 012c 02000000 		.4byte	.LCFI14
 2223 0130 04000000 		.4byte	.LCFI15
 2224 0134 0200     		.2byte	0x2
 2225 0136 7D       		.byte	0x7d
 2226 0137 08       		.sleb128 8
 2227 0138 04000000 		.4byte	.LCFI15
 2228 013c 08000000 		.4byte	.LFE6
 2229 0140 0200     		.2byte	0x2
 2230 0142 77       		.byte	0x77
 2231 0143 08       		.sleb128 8
 2232 0144 00000000 		.4byte	0
 2233 0148 00000000 		.4byte	0
 2234              	.LLST7:
 2235 014c 00000000 		.4byte	.LFB7
 2236 0150 02000000 		.4byte	.LCFI16
 2237 0154 0200     		.2byte	0x2
 2238 0156 7D       		.byte	0x7d
 2239 0157 00       		.sleb128 0
 2240 0158 02000000 		.4byte	.LCFI16
 2241 015c 04000000 		.4byte	.LCFI17
 2242 0160 0200     		.2byte	0x2
 2243 0162 7D       		.byte	0x7d
 2244 0163 08       		.sleb128 8
 2245 0164 04000000 		.4byte	.LCFI17
 2246 0168 08000000 		.4byte	.LFE7
 2247 016c 0200     		.2byte	0x2
 2248 016e 77       		.byte	0x77
 2249 016f 08       		.sleb128 8
 2250 0170 00000000 		.4byte	0
 2251 0174 00000000 		.4byte	0
 2252              	.LLST8:
 2253 0178 00000000 		.4byte	.LFB8
 2254 017c 02000000 		.4byte	.LCFI18
 2255 0180 0200     		.2byte	0x2
 2256 0182 7D       		.byte	0x7d
 2257 0183 00       		.sleb128 0
 2258 0184 02000000 		.4byte	.LCFI18
 2259 0188 04000000 		.4byte	.LCFI19
 2260 018c 0200     		.2byte	0x2
 2261 018e 7D       		.byte	0x7d
 2262 018f 08       		.sleb128 8
 2263 0190 04000000 		.4byte	.LCFI19
 2264 0194 06000000 		.4byte	.LCFI20
 2265 0198 0200     		.2byte	0x2
ARM GAS  C:\Users\Colin\AppData\Local\Temp\ccYoaoge.s 			page 61


 2266 019a 7D       		.byte	0x7d
 2267 019b 10       		.sleb128 16
 2268 019c 06000000 		.4byte	.LCFI20
 2269 01a0 20000000 		.4byte	.LFE8
 2270 01a4 0200     		.2byte	0x2
 2271 01a6 77       		.byte	0x77
 2272 01a7 10       		.sleb128 16
 2273 01a8 00000000 		.4byte	0
 2274 01ac 00000000 		.4byte	0
 2275              	.LLST9:
 2276 01b0 00000000 		.4byte	.LFB9
 2277 01b4 02000000 		.4byte	.LCFI21
 2278 01b8 0200     		.2byte	0x2
 2279 01ba 7D       		.byte	0x7d
 2280 01bb 00       		.sleb128 0
 2281 01bc 02000000 		.4byte	.LCFI21
 2282 01c0 04000000 		.4byte	.LCFI22
 2283 01c4 0200     		.2byte	0x2
 2284 01c6 7D       		.byte	0x7d
 2285 01c7 08       		.sleb128 8
 2286 01c8 04000000 		.4byte	.LCFI22
 2287 01cc 06000000 		.4byte	.LCFI23
 2288 01d0 0200     		.2byte	0x2
 2289 01d2 7D       		.byte	0x7d
 2290 01d3 10       		.sleb128 16
 2291 01d4 06000000 		.4byte	.LCFI23
 2292 01d8 20000000 		.4byte	.LFE9
 2293 01dc 0200     		.2byte	0x2
 2294 01de 77       		.byte	0x77
 2295 01df 10       		.sleb128 16
 2296 01e0 00000000 		.4byte	0
 2297 01e4 00000000 		.4byte	0
 2298              	.LLST10:
 2299 01e8 00000000 		.4byte	.LFB10
 2300 01ec 02000000 		.4byte	.LCFI24
 2301 01f0 0200     		.2byte	0x2
 2302 01f2 7D       		.byte	0x7d
 2303 01f3 00       		.sleb128 0
 2304 01f4 02000000 		.4byte	.LCFI24
 2305 01f8 04000000 		.4byte	.LCFI25
 2306 01fc 0200     		.2byte	0x2
 2307 01fe 7D       		.byte	0x7d
 2308 01ff 08       		.sleb128 8
 2309 0200 04000000 		.4byte	.LCFI25
 2310 0204 06000000 		.4byte	.LCFI26
 2311 0208 0200     		.2byte	0x2
 2312 020a 7D       		.byte	0x7d
 2313 020b 10       		.sleb128 16
 2314 020c 06000000 		.4byte	.LCFI26
 2315 0210 20000000 		.4byte	.LFE10
 2316 0214 0200     		.2byte	0x2
 2317 0216 77       		.byte	0x77
 2318 0217 10       		.sleb128 16
 2319 0218 00000000 		.4byte	0
 2320 021c 00000000 		.4byte	0
 2321              	.LLST11:
 2322 0220 00000000 		.4byte	.LFB11
ARM GAS  C:\Users\Colin\AppData\Local\Temp\ccYoaoge.s 			page 62


 2323 0224 02000000 		.4byte	.LCFI27
 2324 0228 0200     		.2byte	0x2
 2325 022a 7D       		.byte	0x7d
 2326 022b 00       		.sleb128 0
 2327 022c 02000000 		.4byte	.LCFI27
 2328 0230 04000000 		.4byte	.LCFI28
 2329 0234 0200     		.2byte	0x2
 2330 0236 7D       		.byte	0x7d
 2331 0237 08       		.sleb128 8
 2332 0238 04000000 		.4byte	.LCFI28
 2333 023c 06000000 		.4byte	.LCFI29
 2334 0240 0200     		.2byte	0x2
 2335 0242 7D       		.byte	0x7d
 2336 0243 10       		.sleb128 16
 2337 0244 06000000 		.4byte	.LCFI29
 2338 0248 20000000 		.4byte	.LFE11
 2339 024c 0200     		.2byte	0x2
 2340 024e 77       		.byte	0x77
 2341 024f 10       		.sleb128 16
 2342 0250 00000000 		.4byte	0
 2343 0254 00000000 		.4byte	0
 2344              	.LLST12:
 2345 0258 00000000 		.4byte	.LFB12
 2346 025c 02000000 		.4byte	.LCFI30
 2347 0260 0200     		.2byte	0x2
 2348 0262 7D       		.byte	0x7d
 2349 0263 00       		.sleb128 0
 2350 0264 02000000 		.4byte	.LCFI30
 2351 0268 04000000 		.4byte	.LCFI31
 2352 026c 0200     		.2byte	0x2
 2353 026e 7D       		.byte	0x7d
 2354 026f 08       		.sleb128 8
 2355 0270 04000000 		.4byte	.LCFI31
 2356 0274 06000000 		.4byte	.LCFI32
 2357 0278 0200     		.2byte	0x2
 2358 027a 7D       		.byte	0x7d
 2359 027b 10       		.sleb128 16
 2360 027c 06000000 		.4byte	.LCFI32
 2361 0280 34000000 		.4byte	.LFE12
 2362 0284 0200     		.2byte	0x2
 2363 0286 77       		.byte	0x77
 2364 0287 10       		.sleb128 16
 2365 0288 00000000 		.4byte	0
 2366 028c 00000000 		.4byte	0
 2367              	.LLST13:
 2368 0290 00000000 		.4byte	.LFB13
 2369 0294 02000000 		.4byte	.LCFI33
 2370 0298 0200     		.2byte	0x2
 2371 029a 7D       		.byte	0x7d
 2372 029b 00       		.sleb128 0
 2373 029c 02000000 		.4byte	.LCFI33
 2374 02a0 04000000 		.4byte	.LCFI34
 2375 02a4 0200     		.2byte	0x2
 2376 02a6 7D       		.byte	0x7d
 2377 02a7 08       		.sleb128 8
 2378 02a8 04000000 		.4byte	.LCFI34
 2379 02ac 06000000 		.4byte	.LCFI35
ARM GAS  C:\Users\Colin\AppData\Local\Temp\ccYoaoge.s 			page 63


 2380 02b0 0200     		.2byte	0x2
 2381 02b2 7D       		.byte	0x7d
 2382 02b3 10       		.sleb128 16
 2383 02b4 06000000 		.4byte	.LCFI35
 2384 02b8 20000000 		.4byte	.LFE13
 2385 02bc 0200     		.2byte	0x2
 2386 02be 77       		.byte	0x77
 2387 02bf 10       		.sleb128 16
 2388 02c0 00000000 		.4byte	0
 2389 02c4 00000000 		.4byte	0
 2390              	.LLST14:
 2391 02c8 00000000 		.4byte	.LFB14
 2392 02cc 02000000 		.4byte	.LCFI36
 2393 02d0 0200     		.2byte	0x2
 2394 02d2 7D       		.byte	0x7d
 2395 02d3 00       		.sleb128 0
 2396 02d4 02000000 		.4byte	.LCFI36
 2397 02d8 04000000 		.4byte	.LCFI37
 2398 02dc 0200     		.2byte	0x2
 2399 02de 7D       		.byte	0x7d
 2400 02df 08       		.sleb128 8
 2401 02e0 04000000 		.4byte	.LCFI37
 2402 02e4 06000000 		.4byte	.LCFI38
 2403 02e8 0200     		.2byte	0x2
 2404 02ea 7D       		.byte	0x7d
 2405 02eb 10       		.sleb128 16
 2406 02ec 06000000 		.4byte	.LCFI38
 2407 02f0 30000000 		.4byte	.LFE14
 2408 02f4 0200     		.2byte	0x2
 2409 02f6 77       		.byte	0x77
 2410 02f7 10       		.sleb128 16
 2411 02f8 00000000 		.4byte	0
 2412 02fc 00000000 		.4byte	0
 2413              	.LLST15:
 2414 0300 00000000 		.4byte	.LFB15
 2415 0304 02000000 		.4byte	.LCFI39
 2416 0308 0200     		.2byte	0x2
 2417 030a 7D       		.byte	0x7d
 2418 030b 00       		.sleb128 0
 2419 030c 02000000 		.4byte	.LCFI39
 2420 0310 04000000 		.4byte	.LCFI40
 2421 0314 0200     		.2byte	0x2
 2422 0316 7D       		.byte	0x7d
 2423 0317 08       		.sleb128 8
 2424 0318 04000000 		.4byte	.LCFI40
 2425 031c 06000000 		.4byte	.LCFI41
 2426 0320 0200     		.2byte	0x2
 2427 0322 7D       		.byte	0x7d
 2428 0323 10       		.sleb128 16
 2429 0324 06000000 		.4byte	.LCFI41
 2430 0328 48000000 		.4byte	.LFE15
 2431 032c 0200     		.2byte	0x2
 2432 032e 77       		.byte	0x77
 2433 032f 10       		.sleb128 16
 2434 0330 00000000 		.4byte	0
 2435 0334 00000000 		.4byte	0
 2436              	.LLST16:
ARM GAS  C:\Users\Colin\AppData\Local\Temp\ccYoaoge.s 			page 64


 2437 0338 00000000 		.4byte	.LFB16
 2438 033c 02000000 		.4byte	.LCFI42
 2439 0340 0200     		.2byte	0x2
 2440 0342 7D       		.byte	0x7d
 2441 0343 00       		.sleb128 0
 2442 0344 02000000 		.4byte	.LCFI42
 2443 0348 04000000 		.4byte	.LCFI43
 2444 034c 0200     		.2byte	0x2
 2445 034e 7D       		.byte	0x7d
 2446 034f 08       		.sleb128 8
 2447 0350 04000000 		.4byte	.LCFI43
 2448 0354 24000000 		.4byte	.LFE16
 2449 0358 0200     		.2byte	0x2
 2450 035a 77       		.byte	0x77
 2451 035b 08       		.sleb128 8
 2452 035c 00000000 		.4byte	0
 2453 0360 00000000 		.4byte	0
 2454              	.LLST17:
 2455 0364 00000000 		.4byte	.LFB17
 2456 0368 02000000 		.4byte	.LCFI44
 2457 036c 0200     		.2byte	0x2
 2458 036e 7D       		.byte	0x7d
 2459 036f 00       		.sleb128 0
 2460 0370 02000000 		.4byte	.LCFI44
 2461 0374 04000000 		.4byte	.LCFI45
 2462 0378 0200     		.2byte	0x2
 2463 037a 7D       		.byte	0x7d
 2464 037b 0C       		.sleb128 12
 2465 037c 04000000 		.4byte	.LCFI45
 2466 0380 06000000 		.4byte	.LCFI46
 2467 0384 0200     		.2byte	0x2
 2468 0386 7D       		.byte	0x7d
 2469 0387 18       		.sleb128 24
 2470 0388 06000000 		.4byte	.LCFI46
 2471 038c 68000000 		.4byte	.LFE17
 2472 0390 0200     		.2byte	0x2
 2473 0392 77       		.byte	0x77
 2474 0393 18       		.sleb128 24
 2475 0394 00000000 		.4byte	0
 2476 0398 00000000 		.4byte	0
 2477              	.LLST18:
 2478 039c 00000000 		.4byte	.LFB18
 2479 03a0 02000000 		.4byte	.LCFI47
 2480 03a4 0200     		.2byte	0x2
 2481 03a6 7D       		.byte	0x7d
 2482 03a7 00       		.sleb128 0
 2483 03a8 02000000 		.4byte	.LCFI47
 2484 03ac 04000000 		.4byte	.LCFI48
 2485 03b0 0200     		.2byte	0x2
 2486 03b2 7D       		.byte	0x7d
 2487 03b3 08       		.sleb128 8
 2488 03b4 04000000 		.4byte	.LCFI48
 2489 03b8 06000000 		.4byte	.LCFI49
 2490 03bc 0200     		.2byte	0x2
 2491 03be 7D       		.byte	0x7d
 2492 03bf 18       		.sleb128 24
 2493 03c0 06000000 		.4byte	.LCFI49
ARM GAS  C:\Users\Colin\AppData\Local\Temp\ccYoaoge.s 			page 65


 2494 03c4 52000000 		.4byte	.LFE18
 2495 03c8 0200     		.2byte	0x2
 2496 03ca 77       		.byte	0x77
 2497 03cb 18       		.sleb128 24
 2498 03cc 00000000 		.4byte	0
 2499 03d0 00000000 		.4byte	0
 2500              	.LLST19:
 2501 03d4 00000000 		.4byte	.LFB19
 2502 03d8 02000000 		.4byte	.LCFI50
 2503 03dc 0200     		.2byte	0x2
 2504 03de 7D       		.byte	0x7d
 2505 03df 00       		.sleb128 0
 2506 03e0 02000000 		.4byte	.LCFI50
 2507 03e4 04000000 		.4byte	.LCFI51
 2508 03e8 0200     		.2byte	0x2
 2509 03ea 7D       		.byte	0x7d
 2510 03eb 0C       		.sleb128 12
 2511 03ec 04000000 		.4byte	.LCFI51
 2512 03f0 06000000 		.4byte	.LCFI52
 2513 03f4 0200     		.2byte	0x2
 2514 03f6 7D       		.byte	0x7d
 2515 03f7 18       		.sleb128 24
 2516 03f8 06000000 		.4byte	.LCFI52
 2517 03fc 84000000 		.4byte	.LFE19
 2518 0400 0200     		.2byte	0x2
 2519 0402 77       		.byte	0x77
 2520 0403 18       		.sleb128 24
 2521 0404 00000000 		.4byte	0
 2522 0408 00000000 		.4byte	0
 2523              	.LLST20:
 2524 040c 00000000 		.4byte	.LFB20
 2525 0410 02000000 		.4byte	.LCFI53
 2526 0414 0200     		.2byte	0x2
 2527 0416 7D       		.byte	0x7d
 2528 0417 00       		.sleb128 0
 2529 0418 02000000 		.4byte	.LCFI53
 2530 041c 04000000 		.4byte	.LCFI54
 2531 0420 0200     		.2byte	0x2
 2532 0422 7D       		.byte	0x7d
 2533 0423 08       		.sleb128 8
 2534 0424 04000000 		.4byte	.LCFI54
 2535 0428 10000000 		.4byte	.LFE20
 2536 042c 0200     		.2byte	0x2
 2537 042e 77       		.byte	0x77
 2538 042f 08       		.sleb128 8
 2539 0430 00000000 		.4byte	0
 2540 0434 00000000 		.4byte	0
 2541              	.LLST21:
 2542 0438 00000000 		.4byte	.LFB21
 2543 043c 02000000 		.4byte	.LCFI55
 2544 0440 0200     		.2byte	0x2
 2545 0442 7D       		.byte	0x7d
 2546 0443 00       		.sleb128 0
 2547 0444 02000000 		.4byte	.LCFI55
 2548 0448 04000000 		.4byte	.LCFI56
 2549 044c 0200     		.2byte	0x2
 2550 044e 7D       		.byte	0x7d
ARM GAS  C:\Users\Colin\AppData\Local\Temp\ccYoaoge.s 			page 66


 2551 044f 08       		.sleb128 8
 2552 0450 04000000 		.4byte	.LCFI56
 2553 0454 10000000 		.4byte	.LFE21
 2554 0458 0200     		.2byte	0x2
 2555 045a 77       		.byte	0x77
 2556 045b 08       		.sleb128 8
 2557 045c 00000000 		.4byte	0
 2558 0460 00000000 		.4byte	0
 2559              	.LLST22:
 2560 0464 00000000 		.4byte	.LFB22
 2561 0468 02000000 		.4byte	.LCFI57
 2562 046c 0200     		.2byte	0x2
 2563 046e 7D       		.byte	0x7d
 2564 046f 00       		.sleb128 0
 2565 0470 02000000 		.4byte	.LCFI57
 2566 0474 04000000 		.4byte	.LCFI58
 2567 0478 0200     		.2byte	0x2
 2568 047a 7D       		.byte	0x7d
 2569 047b 08       		.sleb128 8
 2570 047c 04000000 		.4byte	.LCFI58
 2571 0480 06000000 		.4byte	.LCFI59
 2572 0484 0200     		.2byte	0x2
 2573 0486 7D       		.byte	0x7d
 2574 0487 10       		.sleb128 16
 2575 0488 06000000 		.4byte	.LCFI59
 2576 048c 30000000 		.4byte	.LFE22
 2577 0490 0200     		.2byte	0x2
 2578 0492 77       		.byte	0x77
 2579 0493 10       		.sleb128 16
 2580 0494 00000000 		.4byte	0
 2581 0498 00000000 		.4byte	0
 2582              	.LLST23:
 2583 049c 00000000 		.4byte	.LFB23
 2584 04a0 02000000 		.4byte	.LCFI60
 2585 04a4 0200     		.2byte	0x2
 2586 04a6 7D       		.byte	0x7d
 2587 04a7 00       		.sleb128 0
 2588 04a8 02000000 		.4byte	.LCFI60
 2589 04ac 04000000 		.4byte	.LCFI61
 2590 04b0 0200     		.2byte	0x2
 2591 04b2 7D       		.byte	0x7d
 2592 04b3 08       		.sleb128 8
 2593 04b4 04000000 		.4byte	.LCFI61
 2594 04b8 06000000 		.4byte	.LCFI62
 2595 04bc 0200     		.2byte	0x2
 2596 04be 7D       		.byte	0x7d
 2597 04bf 10       		.sleb128 16
 2598 04c0 06000000 		.4byte	.LCFI62
 2599 04c4 40000000 		.4byte	.LFE23
 2600 04c8 0200     		.2byte	0x2
 2601 04ca 77       		.byte	0x77
 2602 04cb 10       		.sleb128 16
 2603 04cc 00000000 		.4byte	0
 2604 04d0 00000000 		.4byte	0
 2605              		.section	.debug_aranges,"",%progbits
 2606 0000 D4000000 		.4byte	0xd4
 2607 0004 0200     		.2byte	0x2
ARM GAS  C:\Users\Colin\AppData\Local\Temp\ccYoaoge.s 			page 67


 2608 0006 00000000 		.4byte	.Ldebug_info0
 2609 000a 04       		.byte	0x4
 2610 000b 00       		.byte	0
 2611 000c 0000     		.2byte	0
 2612 000e 0000     		.2byte	0
 2613 0010 00000000 		.4byte	.LFB0
 2614 0014 34000000 		.4byte	.LFE0-.LFB0
 2615 0018 00000000 		.4byte	.LFB1
 2616 001c 68000000 		.4byte	.LFE1-.LFB1
 2617 0020 00000000 		.4byte	.LFB2
 2618 0024 24000000 		.4byte	.LFE2-.LFB2
 2619 0028 00000000 		.4byte	.LFB3
 2620 002c 54000000 		.4byte	.LFE3-.LFB3
 2621 0030 00000000 		.4byte	.LFB4
 2622 0034 08000000 		.4byte	.LFE4-.LFB4
 2623 0038 00000000 		.4byte	.LFB5
 2624 003c 08000000 		.4byte	.LFE5-.LFB5
 2625 0040 00000000 		.4byte	.LFB6
 2626 0044 08000000 		.4byte	.LFE6-.LFB6
 2627 0048 00000000 		.4byte	.LFB7
 2628 004c 08000000 		.4byte	.LFE7-.LFB7
 2629 0050 00000000 		.4byte	.LFB8
 2630 0054 20000000 		.4byte	.LFE8-.LFB8
 2631 0058 00000000 		.4byte	.LFB9
 2632 005c 20000000 		.4byte	.LFE9-.LFB9
 2633 0060 00000000 		.4byte	.LFB10
 2634 0064 20000000 		.4byte	.LFE10-.LFB10
 2635 0068 00000000 		.4byte	.LFB11
 2636 006c 20000000 		.4byte	.LFE11-.LFB11
 2637 0070 00000000 		.4byte	.LFB12
 2638 0074 34000000 		.4byte	.LFE12-.LFB12
 2639 0078 00000000 		.4byte	.LFB13
 2640 007c 20000000 		.4byte	.LFE13-.LFB13
 2641 0080 00000000 		.4byte	.LFB14
 2642 0084 30000000 		.4byte	.LFE14-.LFB14
 2643 0088 00000000 		.4byte	.LFB15
 2644 008c 48000000 		.4byte	.LFE15-.LFB15
 2645 0090 00000000 		.4byte	.LFB16
 2646 0094 24000000 		.4byte	.LFE16-.LFB16
 2647 0098 00000000 		.4byte	.LFB17
 2648 009c 68000000 		.4byte	.LFE17-.LFB17
 2649 00a0 00000000 		.4byte	.LFB18
 2650 00a4 52000000 		.4byte	.LFE18-.LFB18
 2651 00a8 00000000 		.4byte	.LFB19
 2652 00ac 84000000 		.4byte	.LFE19-.LFB19
 2653 00b0 00000000 		.4byte	.LFB20
 2654 00b4 10000000 		.4byte	.LFE20-.LFB20
 2655 00b8 00000000 		.4byte	.LFB21
 2656 00bc 10000000 		.4byte	.LFE21-.LFB21
 2657 00c0 00000000 		.4byte	.LFB22
 2658 00c4 30000000 		.4byte	.LFE22-.LFB22
 2659 00c8 00000000 		.4byte	.LFB23
 2660 00cc 40000000 		.4byte	.LFE23-.LFB23
 2661 00d0 00000000 		.4byte	0
 2662 00d4 00000000 		.4byte	0
 2663              		.section	.debug_ranges,"",%progbits
 2664              	.Ldebug_ranges0:
ARM GAS  C:\Users\Colin\AppData\Local\Temp\ccYoaoge.s 			page 68


 2665 0000 00000000 		.4byte	.LFB0
 2666 0004 34000000 		.4byte	.LFE0
 2667 0008 00000000 		.4byte	.LFB1
 2668 000c 68000000 		.4byte	.LFE1
 2669 0010 00000000 		.4byte	.LFB2
 2670 0014 24000000 		.4byte	.LFE2
 2671 0018 00000000 		.4byte	.LFB3
 2672 001c 54000000 		.4byte	.LFE3
 2673 0020 00000000 		.4byte	.LFB4
 2674 0024 08000000 		.4byte	.LFE4
 2675 0028 00000000 		.4byte	.LFB5
 2676 002c 08000000 		.4byte	.LFE5
 2677 0030 00000000 		.4byte	.LFB6
 2678 0034 08000000 		.4byte	.LFE6
 2679 0038 00000000 		.4byte	.LFB7
 2680 003c 08000000 		.4byte	.LFE7
 2681 0040 00000000 		.4byte	.LFB8
 2682 0044 20000000 		.4byte	.LFE8
 2683 0048 00000000 		.4byte	.LFB9
 2684 004c 20000000 		.4byte	.LFE9
 2685 0050 00000000 		.4byte	.LFB10
 2686 0054 20000000 		.4byte	.LFE10
 2687 0058 00000000 		.4byte	.LFB11
 2688 005c 20000000 		.4byte	.LFE11
 2689 0060 00000000 		.4byte	.LFB12
 2690 0064 34000000 		.4byte	.LFE12
 2691 0068 00000000 		.4byte	.LFB13
 2692 006c 20000000 		.4byte	.LFE13
 2693 0070 00000000 		.4byte	.LFB14
 2694 0074 30000000 		.4byte	.LFE14
 2695 0078 00000000 		.4byte	.LFB15
 2696 007c 48000000 		.4byte	.LFE15
 2697 0080 00000000 		.4byte	.LFB16
 2698 0084 24000000 		.4byte	.LFE16
 2699 0088 00000000 		.4byte	.LFB17
 2700 008c 68000000 		.4byte	.LFE17
 2701 0090 00000000 		.4byte	.LFB18
 2702 0094 52000000 		.4byte	.LFE18
 2703 0098 00000000 		.4byte	.LFB19
 2704 009c 84000000 		.4byte	.LFE19
 2705 00a0 00000000 		.4byte	.LFB20
 2706 00a4 10000000 		.4byte	.LFE20
 2707 00a8 00000000 		.4byte	.LFB21
 2708 00ac 10000000 		.4byte	.LFE21
 2709 00b0 00000000 		.4byte	.LFB22
 2710 00b4 30000000 		.4byte	.LFE22
 2711 00b8 00000000 		.4byte	.LFB23
 2712 00bc 40000000 		.4byte	.LFE23
 2713 00c0 00000000 		.4byte	0
 2714 00c4 00000000 		.4byte	0
 2715              		.section	.debug_line,"",%progbits
 2716              	.Ldebug_line0:
 2717 0000 79020000 		.section	.debug_str,"MS",%progbits,1
 2717      02004C00 
 2717      00000201 
 2717      FB0E0D00 
 2717      01010101 
ARM GAS  C:\Users\Colin\AppData\Local\Temp\ccYoaoge.s 			page 69


 2718              	.LASF15:
 2719 0000 72656731 		.ascii	"reg16\000"
 2719      3600
 2720              	.LASF13:
 2721 0006 63686172 		.ascii	"char\000"
 2721      00
 2722              	.LASF33:
 2723 000b 74784461 		.ascii	"txData\000"
 2723      746100
 2724              	.LASF40:
 2725 0012 474C4344 		.ascii	"GLCD_SPIM_UDB_ClearTxBuffer\000"
 2725      5F535049 
 2725      4D5F5544 
 2725      425F436C 
 2725      65617254 
 2726              	.LASF3:
 2727 002e 73686F72 		.ascii	"short unsigned int\000"
 2727      7420756E 
 2727      7369676E 
 2727      65642069 
 2727      6E7400
 2728              	.LASF48:
 2729 0041 474C4344 		.ascii	"GLCD_SPIM_UDB_SetInterruptMode\000"
 2729      5F535049 
 2729      4D5F5544 
 2729      425F5365 
 2729      74496E74 
 2730              	.LASF46:
 2731 0060 474C4344 		.ascii	"GLCD_SPIM_UDB_EnableInt\000"
 2731      5F535049 
 2731      4D5F5544 
 2731      425F456E 
 2731      61626C65 
 2732              	.LASF38:
 2733 0078 474C4344 		.ascii	"GLCD_SPIM_UDB_GetTxBufferSize\000"
 2733      5F535049 
 2733      4D5F5544 
 2733      425F4765 
 2733      74547842 
 2734              	.LASF31:
 2735 0096 474C4344 		.ascii	"GLCD_SPIM_UDB_ReadRxStatus\000"
 2735      5F535049 
 2735      4D5F5544 
 2735      425F5265 
 2735      61645278 
 2736              	.LASF36:
 2737 00b1 474C4344 		.ascii	"GLCD_SPIM_UDB_GetRxBufferSize\000"
 2737      5F535049 
 2737      4D5F5544 
 2737      425F4765 
 2737      74527842 
 2738              	.LASF26:
 2739 00cf 474C4344 		.ascii	"GLCD_SPIM_UDB_SetTxInterruptMode\000"
 2739      5F535049 
 2739      4D5F5544 
 2739      425F5365 
 2739      74547849 
ARM GAS  C:\Users\Colin\AppData\Local\Temp\ccYoaoge.s 			page 70


 2740              	.LASF35:
 2741 00f0 72784461 		.ascii	"rxData\000"
 2741      746100
 2742              	.LASF27:
 2743 00f7 474C4344 		.ascii	"GLCD_SPIM_UDB_SetRxInterruptMode\000"
 2743      5F535049 
 2743      4D5F5544 
 2743      425F5365 
 2743      74527849 
 2744              	.LASF11:
 2745 0118 666C6F61 		.ascii	"float\000"
 2745      7400
 2746              	.LASF25:
 2747 011e 474C4344 		.ascii	"GLCD_SPIM_UDB_DisableRxInt\000"
 2747      5F535049 
 2747      4D5F5544 
 2747      425F4469 
 2747      7361626C 
 2748              	.LASF24:
 2749 0139 474C4344 		.ascii	"GLCD_SPIM_UDB_DisableTxInt\000"
 2749      5F535049 
 2749      4D5F5544 
 2749      425F4469 
 2749      7361626C 
 2750              	.LASF37:
 2751 0154 73697A65 		.ascii	"size\000"
 2751      00
 2752              	.LASF14:
 2753 0159 72656738 		.ascii	"reg8\000"
 2753      00
 2754              	.LASF5:
 2755 015e 6C6F6E67 		.ascii	"long unsigned int\000"
 2755      20756E73 
 2755      69676E65 
 2755      6420696E 
 2755      7400
 2756              	.LASF9:
 2757 0170 75696E74 		.ascii	"uint8\000"
 2757      3800
 2758              	.LASF45:
 2759 0176 474C4344 		.ascii	"GLCD_SPIM_UDB_ClearFIFO\000"
 2759      5F535049 
 2759      4D5F5544 
 2759      425F436C 
 2759      65617246 
 2760              	.LASF43:
 2761 018e 62797465 		.ascii	"byteCount\000"
 2761      436F756E 
 2761      7400
 2762              	.LASF21:
 2763 0198 656E6162 		.ascii	"enableInterrupts\000"
 2763      6C65496E 
 2763      74657272 
 2763      75707473 
 2763      00
 2764              	.LASF55:
 2765 01a9 433A5C55 		.ascii	"C:\\Users\\Colin\\Desktop\\Microcontrollers\\Homewo"
ARM GAS  C:\Users\Colin\AppData\Local\Temp\ccYoaoge.s 			page 71


 2765      73657273 
 2765      5C436F6C 
 2765      696E5C44 
 2765      65736B74 
 2766 01d7 726B5C32 		.ascii	"rk\\2\\GLCD_Test1.cydsn\000"
 2766      5C474C43 
 2766      445F5465 
 2766      7374312E 
 2766      63796473 
 2767              	.LASF1:
 2768 01ed 756E7369 		.ascii	"unsigned char\000"
 2768      676E6564 
 2768      20636861 
 2768      7200
 2769              	.LASF12:
 2770 01fb 646F7562 		.ascii	"double\000"
 2770      6C6500
 2771              	.LASF28:
 2772 0202 696E7453 		.ascii	"intSrc\000"
 2772      726300
 2773              	.LASF39:
 2774 0209 474C4344 		.ascii	"GLCD_SPIM_UDB_ClearRxBuffer\000"
 2774      5F535049 
 2774      4D5F5544 
 2774      425F436C 
 2774      65617252 
 2775              	.LASF23:
 2776 0225 474C4344 		.ascii	"GLCD_SPIM_UDB_EnableRxInt\000"
 2776      5F535049 
 2776      4D5F5544 
 2776      425F456E 
 2776      61626C65 
 2777              	.LASF10:
 2778 023f 75696E74 		.ascii	"uint16\000"
 2778      313600
 2779              	.LASF47:
 2780 0246 474C4344 		.ascii	"GLCD_SPIM_UDB_DisableInt\000"
 2780      5F535049 
 2780      4D5F5544 
 2780      425F4469 
 2780      7361626C 
 2781              	.LASF18:
 2782 025f 474C4344 		.ascii	"GLCD_SPIM_UDB_Start\000"
 2782      5F535049 
 2782      4D5F5544 
 2782      425F5374 
 2782      61727400 
 2783              	.LASF30:
 2784 0273 474C4344 		.ascii	"GLCD_SPIM_UDB_ReadTxStatus\000"
 2784      5F535049 
 2784      4D5F5544 
 2784      425F5265 
 2784      61645478 
 2785              	.LASF8:
 2786 028e 756E7369 		.ascii	"unsigned int\000"
 2786      676E6564 
 2786      20696E74 
ARM GAS  C:\Users\Colin\AppData\Local\Temp\ccYoaoge.s 			page 72


 2786      00
 2787              	.LASF54:
 2788 029b 2E5C4765 		.ascii	".\\Generated_Source\\PSoC4\\GLCD_SPIM_UDB.c\000"
 2788      6E657261 
 2788      7465645F 
 2788      536F7572 
 2788      63655C50 
 2789              	.LASF7:
 2790 02c4 6C6F6E67 		.ascii	"long long unsigned int\000"
 2790      206C6F6E 
 2790      6720756E 
 2790      7369676E 
 2790      65642069 
 2791              	.LASF17:
 2792 02db 474C4344 		.ascii	"GLCD_SPIM_UDB_Init\000"
 2792      5F535049 
 2792      4D5F5544 
 2792      425F496E 
 2792      697400
 2793              	.LASF44:
 2794 02ee 62756649 		.ascii	"bufIndex\000"
 2794      6E646578 
 2794      00
 2795              	.LASF49:
 2796 02f7 474C4344 		.ascii	"GLCD_SPIM_UDB_ReadStatus\000"
 2796      5F535049 
 2796      4D5F5544 
 2796      425F5265 
 2796      61645374 
 2797              	.LASF32:
 2798 0310 474C4344 		.ascii	"GLCD_SPIM_UDB_WriteTxData\000"
 2798      5F535049 
 2798      4D5F5544 
 2798      425F5772 
 2798      69746554 
 2799              	.LASF16:
 2800 032a 73697A65 		.ascii	"sizetype\000"
 2800      74797065 
 2800      00
 2801              	.LASF6:
 2802 0333 6C6F6E67 		.ascii	"long long int\000"
 2802      206C6F6E 
 2802      6720696E 
 2802      7400
 2803              	.LASF50:
 2804 0341 474C4344 		.ascii	"GLCD_SPIM_UDB_initVar\000"
 2804      5F535049 
 2804      4D5F5544 
 2804      425F696E 
 2804      69745661 
 2805              	.LASF2:
 2806 0357 73686F72 		.ascii	"short int\000"
 2806      7420696E 
 2806      7400
 2807              	.LASF41:
 2808 0361 474C4344 		.ascii	"GLCD_SPIM_UDB_PutArray\000"
 2808      5F535049 
ARM GAS  C:\Users\Colin\AppData\Local\Temp\ccYoaoge.s 			page 73


 2808      4D5F5544 
 2808      425F5075 
 2808      74417272 
 2809              	.LASF42:
 2810 0378 62756666 		.ascii	"buffer\000"
 2810      657200
 2811              	.LASF53:
 2812 037f 474E5520 		.ascii	"GNU C 4.7.3 20130312 (release) [ARM/embedded-4_7-br"
 2812      4320342E 
 2812      372E3320 
 2812      32303133 
 2812      30333132 
 2813 03b2 616E6368 		.ascii	"anch revision 196615]\000"
 2813      20726576 
 2813      6973696F 
 2813      6E203139 
 2813      36363135 
 2814              	.LASF34:
 2815 03c8 474C4344 		.ascii	"GLCD_SPIM_UDB_ReadRxData\000"
 2815      5F535049 
 2815      4D5F5544 
 2815      425F5265 
 2815      61645278 
 2816              	.LASF4:
 2817 03e1 6C6F6E67 		.ascii	"long int\000"
 2817      20696E74 
 2817      00
 2818              	.LASF29:
 2819 03ea 746D7053 		.ascii	"tmpStatus\000"
 2819      74617475 
 2819      7300
 2820              	.LASF0:
 2821 03f4 7369676E 		.ascii	"signed char\000"
 2821      65642063 
 2821      68617200 
 2822              	.LASF52:
 2823 0400 474C4344 		.ascii	"GLCD_SPIM_UDB_swStatusRx\000"
 2823      5F535049 
 2823      4D5F5544 
 2823      425F7377 
 2823      53746174 
 2824              	.LASF19:
 2825 0419 474C4344 		.ascii	"GLCD_SPIM_UDB_Enable\000"
 2825      5F535049 
 2825      4D5F5544 
 2825      425F456E 
 2825      61626C65 
 2826              	.LASF20:
 2827 042e 474C4344 		.ascii	"GLCD_SPIM_UDB_Stop\000"
 2827      5F535049 
 2827      4D5F5544 
 2827      425F5374 
 2827      6F7000
 2828              	.LASF51:
 2829 0441 474C4344 		.ascii	"GLCD_SPIM_UDB_swStatusTx\000"
 2829      5F535049 
 2829      4D5F5544 
ARM GAS  C:\Users\Colin\AppData\Local\Temp\ccYoaoge.s 			page 74


 2829      425F7377 
 2829      53746174 
 2830              	.LASF22:
 2831 045a 474C4344 		.ascii	"GLCD_SPIM_UDB_EnableTxInt\000"
 2831      5F535049 
 2831      4D5F5544 
 2831      425F456E 
 2831      61626C65 
 2832              		.ident	"GCC: (GNU Tools for ARM Embedded Processors) 4.7.3 20130312 (release) [ARM/embedded-4_7-br
