ARM GAS  C:\Users\Trenton\AppData\Local\Temp\ccZLiGyS.s 			page 1


   1              		.cpu cortex-m0
   2              		.fpu softvfp
   3              		.eabi_attribute 20, 1
   4              		.eabi_attribute 21, 1
   5              		.eabi_attribute 23, 3
   6              		.eabi_attribute 24, 1
   7              		.eabi_attribute 25, 1
   8              		.eabi_attribute 26, 1
   9              		.eabi_attribute 30, 6
  10              		.eabi_attribute 34, 0
  11              		.eabi_attribute 18, 4
  12              		.code	16
  13              		.file	"main.c"
  14              		.text
  15              	.Ltext0:
  16              		.cfi_sections	.debug_frame
  17              		.comm	GLCD_FONT8x16,1552,4
  18              		.global	coordx
  19              		.bss
  20              		.align	2
  21              		.type	coordx, %object
  22              		.size	coordx, 800
  23              	coordx:
  24 0000 00000000 		.space	800
  24      00000000 
  24      00000000 
  24      00000000 
  24      00000000 
  25              		.global	coordy
  26              		.align	2
  27              		.type	coordy, %object
  28              		.size	coordy, 800
  29              	coordy:
  30 0320 00000000 		.space	800
  30      00000000 
  30      00000000 
  30      00000000 
  30      00000000 
  31              		.global	score1
  32              		.align	2
  33              		.type	score1, %object
  34              		.size	score1, 4
  35              	score1:
  36 0640 00000000 		.space	4
  37              		.global	score2
  38              		.align	2
  39              		.type	score2, %object
  40              		.size	score2, 4
  41              	score2:
  42 0644 00000000 		.space	4
  43              		.global	__aeabi_idivmod
  44              		.section	.text.main,"ax",%progbits
  45              		.align	2
  46              		.global	main
  47              		.code	16
  48              		.thumb_func
  49              		.type	main, %function
ARM GAS  C:\Users\Trenton\AppData\Local\Temp\ccZLiGyS.s 			page 2


  50              	main:
  51              	.LFB33:
  52              		.file 1 ".\\main.c"
   1:.\main.c      **** //Colin Wilkins and Trenton Sanders
   2:.\main.c      **** //April 16, 2014
   3:.\main.c      **** //EE 3280, Dr. Bolding
   4:.\main.c      **** //HW 2 - The Little Doctor
   5:.\main.c      **** 
   6:.\main.c      **** #include <device.h>
   7:.\main.c      **** #include <stdlib.h>
   8:.\main.c      **** #include <stdio.h>
   9:.\main.c      **** 
  10:.\main.c      **** void crosshair(int, int, int);  //Draws the crosshair
  11:.\main.c      **** void blast(int, int, int, int); //Draws blast explosion, destroys stars
  12:.\main.c      **** void color(int);    //Determines blast charge light
  13:.\main.c      **** int distance(int, int, int, int); //Returns distancce b/w two points
  14:.\main.c      **** void cornerScreen1(int);   //Player 1's score display
  15:.\main.c      **** void cornerScreen2(int);   //Player 2's score display
  16:.\main.c      **** 
  17:.\main.c      **** //Global variabkes so functions change values
  18:.\main.c      **** int coordx [200]={0};           //star x coordinate
  19:.\main.c      **** int coordy [200]={0};           //star y coordinate
  20:.\main.c      **** int score1=0;   //Score for p1
  21:.\main.c      **** int score2=0;   //Score for p2
  22:.\main.c      **** 
  23:.\main.c      **** int main()
  24:.\main.c      **** {
  53              		.loc 1 24 0
  54              		.cfi_startproc
  55 0000 90B5     		push	{r4, r7, lr}
  56              	.LCFI0:
  57              		.cfi_def_cfa_offset 12
  58              		.cfi_offset 4, -12
  59              		.cfi_offset 7, -8
  60              		.cfi_offset 14, -4
  61 0002 91B0     		sub	sp, sp, #68
  62              	.LCFI1:
  63              		.cfi_def_cfa_offset 80
  64 0004 00AF     		add	r7, sp, #0
  65              	.LCFI2:
  66              		.cfi_def_cfa_register 7
  25:.\main.c      ****     //Variables to be sent
  26:.\main.c      ****     int xcenter = 66;           //Starting x coord for crosshair
  67              		.loc 1 26 0
  68 0006 4223     		mov	r3, #66
  69 0008 FB63     		str	r3, [r7, #60]
  27:.\main.c      ****     int ycenter = 66;           //Starting y coord for crosshair
  70              		.loc 1 27 0
  71 000a 4223     		mov	r3, #66
  72 000c BB63     		str	r3, [r7, #56]
  28:.\main.c      ****     int blast_status = 0;       //Blast status to be sent
  73              		.loc 1 28 0
  74 000e 0023     		mov	r3, #0
  75 0010 7B63     		str	r3, [r7, #52]
  29:.\main.c      ****     uint16 send;                //A combination of the above
  30:.\main.c      ****     
  31:.\main.c      ****     //Variables to be retrieved
ARM GAS  C:\Users\Trenton\AppData\Local\Temp\ccZLiGyS.s 			page 3


  32:.\main.c      ****     int other_blast_status =0;  //p2 blast status
  76              		.loc 1 32 0
  77 0012 0023     		mov	r3, #0
  78 0014 3B63     		str	r3, [r7, #48]
  33:.\main.c      ****     int other_xCenter = 66;     //p2 x coord
  79              		.loc 1 33 0
  80 0016 4223     		mov	r3, #66
  81 0018 FB62     		str	r3, [r7, #44]
  34:.\main.c      ****     int other_yCenter =66;      //p2 y coord
  82              		.loc 1 34 0
  83 001a 4223     		mov	r3, #66
  84 001c BB62     		str	r3, [r7, #40]
  35:.\main.c      ****     uint16 receive;             //A combination of the above
  36:.\main.c      **** 
  37:.\main.c      ****     
  38:.\main.c      ****     //Other
  39:.\main.c      ****     int other_old_xCenter = 0;  //Previous p2 cursor locations that allow drawing "movement"
  85              		.loc 1 39 0
  86 001e 0023     		mov	r3, #0
  87 0020 7B62     		str	r3, [r7, #36]
  40:.\main.c      ****     int other_old_yCenter = 0;  
  88              		.loc 1 40 0
  89 0022 0023     		mov	r3, #0
  90 0024 3B62     		str	r3, [r7, #32]
  41:.\main.c      ****     uint32 slowtwinkle = 0;     //Used for twinkling
  91              		.loc 1 41 0
  92 0026 0023     		mov	r3, #0
  93 0028 FB61     		str	r3, [r7, #28]
  42:.\main.c      ****     int randstar = 0;
  94              		.loc 1 42 0
  95 002a 0023     		mov	r3, #0
  96 002c BB61     		str	r3, [r7, #24]
  43:.\main.c      ****     int timer = 0;              //Used for counting loop cycles
  97              		.loc 1 43 0
  98 002e 0023     		mov	r3, #0
  99 0030 7B61     		str	r3, [r7, #20]
  44:.\main.c      ****     int power = 1;              //Blast size
 100              		.loc 1 44 0
 101 0032 0123     		mov	r3, #1
 102 0034 3B61     		str	r3, [r7, #16]
  45:.\main.c      ****     
  46:.\main.c      **** 
  47:.\main.c      ****     
  48:.\main.c      ****     // Initialize LCD
  49:.\main.c      ****     GLCD_Start();  
 103              		.loc 1 49 0
 104 0036 FFF7FEFF 		bl	GLCD_Start
  50:.\main.c      ****     Com_Block_Start();          //Starts the slave module
 105              		.loc 1 50 0
 106 003a FFF7FEFF 		bl	Com_Block_Start
  51:.\main.c      **** 
  52:.\main.c      ****     // clear LCD to black color
  53:.\main.c      ****     GLCD_Clear(GLCD_BLACK);
 107              		.loc 1 53 0
 108 003e 0020     		mov	r0, #0
 109 0040 FFF7FEFF 		bl	GLCD_Clear
  54:.\main.c      **** 
ARM GAS  C:\Users\Trenton\AppData\Local\Temp\ccZLiGyS.s 			page 4


  55:.\main.c      ****     int i;
  56:.\main.c      ****     for (i = 0;i<200;i++)
 110              		.loc 1 56 0
 111 0044 0023     		mov	r3, #0
 112 0046 FB60     		str	r3, [r7, #12]
 113 0048 20E0     		b	.L2
 114              	.L3:
 115              	.LBB2:
  57:.\main.c      ****     {
  58:.\main.c      ****         int x = (rand()%124)+4;
 116              		.loc 1 58 0 discriminator 2
 117 004a FFF7FEFF 		bl	rand
 118 004e 031C     		mov	r3, r0
 119 0050 181C     		mov	r0, r3
 120 0052 7C21     		mov	r1, #124
 121 0054 FFF7FEFF 		bl	__aeabi_idivmod
 122 0058 0B1C     		mov	r3, r1
 123 005a 0433     		add	r3, r3, #4
 124 005c BB60     		str	r3, [r7, #8]
  59:.\main.c      ****         int y = (rand()%124)+4;
 125              		.loc 1 59 0 discriminator 2
 126 005e FFF7FEFF 		bl	rand
 127 0062 031C     		mov	r3, r0
 128 0064 181C     		mov	r0, r3
 129 0066 7C21     		mov	r1, #124
 130 0068 FFF7FEFF 		bl	__aeabi_idivmod
 131 006c 0B1C     		mov	r3, r1
 132 006e 0433     		add	r3, r3, #4
 133 0070 7B60     		str	r3, [r7, #4]
  60:.\main.c      ****         
  61:.\main.c      ****         coordx[i] = x;
 134              		.loc 1 61 0 discriminator 2
 135 0072 144B     		ldr	r3, .L32
 136 0074 FA68     		ldr	r2, [r7, #12]
 137 0076 9200     		lsl	r2, r2, #2
 138 0078 B968     		ldr	r1, [r7, #8]
 139 007a D150     		str	r1, [r2, r3]
  62:.\main.c      ****         coordy[i] = y;
 140              		.loc 1 62 0 discriminator 2
 141 007c 124B     		ldr	r3, .L32+4
 142 007e FA68     		ldr	r2, [r7, #12]
 143 0080 9200     		lsl	r2, r2, #2
 144 0082 7968     		ldr	r1, [r7, #4]
 145 0084 D150     		str	r1, [r2, r3]
 146              	.LBE2:
  56:.\main.c      ****     for (i = 0;i<200;i++)
 147              		.loc 1 56 0 discriminator 2
 148 0086 FB68     		ldr	r3, [r7, #12]
 149 0088 0133     		add	r3, r3, #1
 150 008a FB60     		str	r3, [r7, #12]
 151              	.L2:
  56:.\main.c      ****     for (i = 0;i<200;i++)
 152              		.loc 1 56 0 is_stmt 0 discriminator 1
 153 008c FB68     		ldr	r3, [r7, #12]
 154 008e C72B     		cmp	r3, #199
 155 0090 DBDD     		ble	.L3
  63:.\main.c      ****     }
ARM GAS  C:\Users\Trenton\AppData\Local\Temp\ccZLiGyS.s 			page 5


  64:.\main.c      **** 
  65:.\main.c      ****     //start w/ red light
  66:.\main.c      ****     Blast_Red_Write(0);
 156              		.loc 1 66 0 is_stmt 1
 157 0092 0020     		mov	r0, #0
 158 0094 FFF7FEFF 		bl	Blast_Red_Write
 159 0098 00E0     		b	.L30
 160              	.L31:
  67:.\main.c      ****     
  68:.\main.c      **** while(1){   //Inf loop
  69:.\main.c      **** 
  70:.\main.c      ****     if(slowtwinkle%4==0) //every ten loops
  71:.\main.c      ****         randstar = rand()%200; //Assign new star to twinkle
  72:.\main.c      ****     slowtwinkle++;//Increment every loop
  73:.\main.c      ****    
  74:.\main.c      ****     //Draw stars    
  75:.\main.c      ****     for(i=0;i<200;i++){  
  76:.\main.c      ****         if(i%5 == 0)
  77:.\main.c      ****             GLCD_Pixel(coordx[i], coordy[i], GLCD_WHITE);
  78:.\main.c      ****         if(i%5 == 1)
  79:.\main.c      ****             GLCD_Pixel(coordx[i], coordy[i], GLCD_ORANGE);
  80:.\main.c      ****         if(i%5 == 2)
  81:.\main.c      ****             GLCD_Pixel(coordx[i], coordy[i], GLCD_WHITE);
  82:.\main.c      ****         if(i%5 == 3)
  83:.\main.c      ****             GLCD_Pixel(coordx[i], coordy[i], GLCD_GOLD);
  84:.\main.c      ****         if(i%5 == 4)
  85:.\main.c      ****             GLCD_Pixel(coordx[i], coordy[i], GLCD_WHITE);        
  86:.\main.c      ****         
  87:.\main.c      ****         //Make stars twinkle
  88:.\main.c      ****         if((i < randstar)&&(randstar < i+20)) {
  89:.\main.c      ****             GLCD_Pixel(coordx[randstar], coordy[randstar], GLCD_BLACK);
  90:.\main.c      ****         }
  91:.\main.c      ****     }
  92:.\main.c      ****     
  93:.\main.c      ****     if(Com_Block_GetRxBufferSize() >= 1)    //If there is data, then it will execute
  94:.\main.c      ****     {
  95:.\main.c      ****         receive = Com_Block_ReadRxData();
  96:.\main.c      ****         other_xCenter = receive & 127;                  //get first 7 bits - xcoord
  97:.\main.c      ****         other_yCenter = receive & 16256;                //get next 7 bits - ycoord
  98:.\main.c      ****         other_yCenter = other_yCenter >> 7;             //shift to get ycoord bits
  99:.\main.c      ****         other_blast_status = receive & 49152;           //get last 2 bits - blast status
 100:.\main.c      ****         other_blast_status = other_blast_status >> 14;  //shift to get blast status bits
 101:.\main.c      ****     }
 102:.\main.c      **** 
 103:.\main.c      ****    
 104:.\main.c      ****     //Draw other player, redraw old crosshair black if moved
 105:.\main.c      ****     if((other_old_xCenter != other_xCenter) || (other_old_yCenter != other_yCenter)){
 106:.\main.c      ****         crosshair(other_old_xCenter,other_old_yCenter, GLCD_BLACK);
 107:.\main.c      ****     }
 108:.\main.c      ****         crosshair(other_xCenter, other_yCenter, GLCD_BLUE);
 109:.\main.c      ****         other_old_xCenter = other_xCenter;
 110:.\main.c      ****         other_old_yCenter = other_yCenter;
 111:.\main.c      ****     
 112:.\main.c      ****     //Draw yourself
 113:.\main.c      ****     crosshair(xcenter, ycenter, GLCD_ORANGE);
 114:.\main.c      ****     
 115:.\main.c      ****     blast_status = 0;   //Default blast status to no blast
ARM GAS  C:\Users\Trenton\AppData\Local\Temp\ccZLiGyS.s 			page 6


 116:.\main.c      ****         
 117:.\main.c      ****     //Move cursor
 118:.\main.c      ****     //Crosshair doesn't move past points 112 and 20 (collide with screen edge)
 119:.\main.c      ****     //Right
 120:.\main.c      ****     if(!Move_Right_Read()){
 121:.\main.c      ****         if(ycenter < 112){  //Edge collision
 122:.\main.c      ****             crosshair(xcenter,ycenter,GLCD_BLACK);  //Delete old cursor
 123:.\main.c      ****             ycenter++;  //Move
 124:.\main.c      ****         }
 125:.\main.c      ****             crosshair(xcenter,ycenter,GLCD_ORANGE); //Draw new location
 126:.\main.c      ****     }
 127:.\main.c      **** 
 128:.\main.c      ****     //Left
 129:.\main.c      ****     if(!Move_Left_Read()){
 130:.\main.c      ****         if(ycenter > 20){
 131:.\main.c      ****             crosshair(xcenter,ycenter,GLCD_BLACK);
 132:.\main.c      ****             ycenter--;
 133:.\main.c      ****         }
 134:.\main.c      ****             crosshair(xcenter,ycenter,GLCD_ORANGE);
 135:.\main.c      ****     }
 136:.\main.c      ****     
 137:.\main.c      ****     //Up
 138:.\main.c      ****     if(!Move_Up_Read()){
 139:.\main.c      ****         if(xcenter > 20){
 140:.\main.c      ****             crosshair(xcenter,ycenter,GLCD_BLACK);
 141:.\main.c      ****             xcenter--;
 142:.\main.c      ****         }
 143:.\main.c      ****             crosshair(xcenter,ycenter,GLCD_ORANGE);        
 144:.\main.c      ****     }
 145:.\main.c      ****     
 146:.\main.c      ****     //Down
 147:.\main.c      ****     if(!Move_Down_Read()){
 148:.\main.c      ****         if(xcenter < 112){
 149:.\main.c      ****             crosshair(xcenter,ycenter,GLCD_BLACK);
 150:.\main.c      ****             xcenter++;
 151:.\main.c      ****         }
 152:.\main.c      ****             crosshair(xcenter,ycenter,GLCD_ORANGE);       
 153:.\main.c      ****     }
 154:.\main.c      ****    
 155:.\main.c      ****     //Fire explosions
 156:.\main.c      ****     //My explosion
 157:.\main.c      ****     if(!Blast_Read()){
 158:.\main.c      ****         blast_status = power;       //Sets status to proper explosion size
 159:.\main.c      ****         blast(xcenter,ycenter,power,0);
 160:.\main.c      ****         power = 0;  //Just fired
 161:.\main.c      ****         color(power); //Update LED light
 162:.\main.c      ****     }
 163:.\main.c      ****     
 164:.\main.c      ****     //P2 explosion
 165:.\main.c      ****     if(other_blast_status)
 166:.\main.c      ****     {
 167:.\main.c      ****         blast(other_xCenter, other_yCenter, other_blast_status,1); //What a mouthful
 168:.\main.c      ****     }
 169:.\main.c      ****     
 170:.\main.c      ****     //Blast charge-up
 171:.\main.c      ****     if((timer%100 == 0) && (power < 2)){ //Increment every 100 cycles, not past 2
 172:.\main.c      ****         power++; 
ARM GAS  C:\Users\Trenton\AppData\Local\Temp\ccZLiGyS.s 			page 7


 173:.\main.c      ****         color(power); //Update LED
 174:.\main.c      ****         }
 175:.\main.c      ****     timer++;
 176:.\main.c      ****     
 177:.\main.c      ****     //Send data
 178:.\main.c      ****     if(Com_Block_ReadTxStatus() & Com_Block_STS_TX_FIFO_NOT_FULL)
 179:.\main.c      ****     {
 180:.\main.c      ****         send = blast_status;
 181:.\main.c      ****         send = send << 7;
 182:.\main.c      ****         send += ycenter;
 183:.\main.c      ****         send = send << 7;
 184:.\main.c      ****         send += xcenter;
 185:.\main.c      ****         Com_Block_WriteTxData(send);
 186:.\main.c      ****     }
 187:.\main.c      ****     
 188:.\main.c      ****     //Win condition
 189:.\main.c      ****     if((score1+score2)>199) {   //When all stars destroyed
 190:.\main.c      ****         cornerScreen1(score1);  //P1's score
 191:.\main.c      ****         cornerScreen2(score2);  //P2's score
 192:.\main.c      ****         while(1);   //End game
 193:.\main.c      ****     }
 194:.\main.c      ****   }
 161              		.loc 1 194 0
 162 009a C046     		mov	r8, r8
 163              	.L30:
  70:.\main.c      ****     if(slowtwinkle%4==0) //every ten loops
 164              		.loc 1 70 0
 165 009c FA69     		ldr	r2, [r7, #28]
 166 009e 0323     		mov	r3, #3
 167 00a0 1340     		and	r3, r2
 168 00a2 08D1     		bne	.L4
  71:.\main.c      ****         randstar = rand()%200; //Assign new star to twinkle
 169              		.loc 1 71 0
 170 00a4 FFF7FEFF 		bl	rand
 171 00a8 031C     		mov	r3, r0
 172 00aa 181C     		mov	r0, r3
 173 00ac C821     		mov	r1, #200
 174 00ae FFF7FEFF 		bl	__aeabi_idivmod
 175 00b2 0B1C     		mov	r3, r1
 176 00b4 BB61     		str	r3, [r7, #24]
 177              	.L4:
  72:.\main.c      ****     slowtwinkle++;//Increment every loop
 178              		.loc 1 72 0
 179 00b6 FB69     		ldr	r3, [r7, #28]
 180 00b8 0133     		add	r3, r3, #1
 181 00ba FB61     		str	r3, [r7, #28]
  75:.\main.c      ****     for(i=0;i<200;i++){  
 182              		.loc 1 75 0
 183 00bc 0023     		mov	r3, #0
 184 00be FB60     		str	r3, [r7, #12]
 185 00c0 8EE0     		b	.L5
 186              	.L33:
 187 00c2 C046     		.align	2
 188              	.L32:
 189 00c4 00000000 		.word	coordx
 190 00c8 00000000 		.word	coordy
 191              	.L12:
ARM GAS  C:\Users\Trenton\AppData\Local\Temp\ccZLiGyS.s 			page 8


  76:.\main.c      ****         if(i%5 == 0)
 192              		.loc 1 76 0
 193 00cc FB68     		ldr	r3, [r7, #12]
 194 00ce 181C     		mov	r0, r3
 195 00d0 0521     		mov	r1, #5
 196 00d2 FFF7FEFF 		bl	__aeabi_idivmod
 197 00d6 0B1C     		mov	r3, r1
 198 00d8 002B     		cmp	r3, #0
 199 00da 0DD1     		bne	.L6
  77:.\main.c      ****             GLCD_Pixel(coordx[i], coordy[i], GLCD_WHITE);
 200              		.loc 1 77 0
 201 00dc D44B     		ldr	r3, .L34
 202 00de FA68     		ldr	r2, [r7, #12]
 203 00e0 9200     		lsl	r2, r2, #2
 204 00e2 D158     		ldr	r1, [r2, r3]
 205 00e4 D34B     		ldr	r3, .L34+4
 206 00e6 FA68     		ldr	r2, [r7, #12]
 207 00e8 9200     		lsl	r2, r2, #2
 208 00ea D258     		ldr	r2, [r2, r3]
 209 00ec D24B     		ldr	r3, .L34+8
 210 00ee 081C     		mov	r0, r1
 211 00f0 111C     		mov	r1, r2
 212 00f2 1A1C     		mov	r2, r3
 213 00f4 FFF7FEFF 		bl	GLCD_Pixel
 214              	.L6:
  78:.\main.c      ****         if(i%5 == 1)
 215              		.loc 1 78 0
 216 00f8 FB68     		ldr	r3, [r7, #12]
 217 00fa 181C     		mov	r0, r3
 218 00fc 0521     		mov	r1, #5
 219 00fe FFF7FEFF 		bl	__aeabi_idivmod
 220 0102 0B1C     		mov	r3, r1
 221 0104 012B     		cmp	r3, #1
 222 0106 0ED1     		bne	.L7
  79:.\main.c      ****             GLCD_Pixel(coordx[i], coordy[i], GLCD_ORANGE);
 223              		.loc 1 79 0
 224 0108 C94B     		ldr	r3, .L34
 225 010a FA68     		ldr	r2, [r7, #12]
 226 010c 9200     		lsl	r2, r2, #2
 227 010e D158     		ldr	r1, [r2, r3]
 228 0110 C84B     		ldr	r3, .L34+4
 229 0112 FA68     		ldr	r2, [r7, #12]
 230 0114 9200     		lsl	r2, r2, #2
 231 0116 D258     		ldr	r2, [r2, r3]
 232 0118 F423     		mov	r3, #244
 233 011a 1B01     		lsl	r3, r3, #4
 234 011c 081C     		mov	r0, r1
 235 011e 111C     		mov	r1, r2
 236 0120 1A1C     		mov	r2, r3
 237 0122 FFF7FEFF 		bl	GLCD_Pixel
 238              	.L7:
  80:.\main.c      ****         if(i%5 == 2)
 239              		.loc 1 80 0
 240 0126 FB68     		ldr	r3, [r7, #12]
 241 0128 181C     		mov	r0, r3
 242 012a 0521     		mov	r1, #5
 243 012c FFF7FEFF 		bl	__aeabi_idivmod
ARM GAS  C:\Users\Trenton\AppData\Local\Temp\ccZLiGyS.s 			page 9


 244 0130 0B1C     		mov	r3, r1
 245 0132 022B     		cmp	r3, #2
 246 0134 0DD1     		bne	.L8
  81:.\main.c      ****             GLCD_Pixel(coordx[i], coordy[i], GLCD_WHITE);
 247              		.loc 1 81 0
 248 0136 BE4B     		ldr	r3, .L34
 249 0138 FA68     		ldr	r2, [r7, #12]
 250 013a 9200     		lsl	r2, r2, #2
 251 013c D158     		ldr	r1, [r2, r3]
 252 013e BD4B     		ldr	r3, .L34+4
 253 0140 FA68     		ldr	r2, [r7, #12]
 254 0142 9200     		lsl	r2, r2, #2
 255 0144 D258     		ldr	r2, [r2, r3]
 256 0146 BC4B     		ldr	r3, .L34+8
 257 0148 081C     		mov	r0, r1
 258 014a 111C     		mov	r1, r2
 259 014c 1A1C     		mov	r2, r3
 260 014e FFF7FEFF 		bl	GLCD_Pixel
 261              	.L8:
  82:.\main.c      ****         if(i%5 == 3)
 262              		.loc 1 82 0
 263 0152 FB68     		ldr	r3, [r7, #12]
 264 0154 181C     		mov	r0, r3
 265 0156 0521     		mov	r1, #5
 266 0158 FFF7FEFF 		bl	__aeabi_idivmod
 267 015c 0B1C     		mov	r3, r1
 268 015e 032B     		cmp	r3, #3
 269 0160 0ED1     		bne	.L9
  83:.\main.c      ****             GLCD_Pixel(coordx[i], coordy[i], GLCD_GOLD);
 270              		.loc 1 83 0
 271 0162 B34B     		ldr	r3, .L34
 272 0164 FA68     		ldr	r2, [r7, #12]
 273 0166 9200     		lsl	r2, r2, #2
 274 0168 D158     		ldr	r1, [r2, r3]
 275 016a B24B     		ldr	r3, .L34+4
 276 016c FA68     		ldr	r2, [r7, #12]
 277 016e 9200     		lsl	r2, r2, #2
 278 0170 D258     		ldr	r2, [r2, r3]
 279 0172 FD23     		mov	r3, #253
 280 0174 1B01     		lsl	r3, r3, #4
 281 0176 081C     		mov	r0, r1
 282 0178 111C     		mov	r1, r2
 283 017a 1A1C     		mov	r2, r3
 284 017c FFF7FEFF 		bl	GLCD_Pixel
 285              	.L9:
  84:.\main.c      ****         if(i%5 == 4)
 286              		.loc 1 84 0
 287 0180 FB68     		ldr	r3, [r7, #12]
 288 0182 181C     		mov	r0, r3
 289 0184 0521     		mov	r1, #5
 290 0186 FFF7FEFF 		bl	__aeabi_idivmod
 291 018a 0B1C     		mov	r3, r1
 292 018c 042B     		cmp	r3, #4
 293 018e 0DD1     		bne	.L10
  85:.\main.c      ****             GLCD_Pixel(coordx[i], coordy[i], GLCD_WHITE);        
 294              		.loc 1 85 0
 295 0190 A74B     		ldr	r3, .L34
ARM GAS  C:\Users\Trenton\AppData\Local\Temp\ccZLiGyS.s 			page 10


 296 0192 FA68     		ldr	r2, [r7, #12]
 297 0194 9200     		lsl	r2, r2, #2
 298 0196 D158     		ldr	r1, [r2, r3]
 299 0198 A64B     		ldr	r3, .L34+4
 300 019a FA68     		ldr	r2, [r7, #12]
 301 019c 9200     		lsl	r2, r2, #2
 302 019e D258     		ldr	r2, [r2, r3]
 303 01a0 A54B     		ldr	r3, .L34+8
 304 01a2 081C     		mov	r0, r1
 305 01a4 111C     		mov	r1, r2
 306 01a6 1A1C     		mov	r2, r3
 307 01a8 FFF7FEFF 		bl	GLCD_Pixel
 308              	.L10:
  88:.\main.c      ****         if((i < randstar)&&(randstar < i+20)) {
 309              		.loc 1 88 0
 310 01ac FA68     		ldr	r2, [r7, #12]
 311 01ae BB69     		ldr	r3, [r7, #24]
 312 01b0 9A42     		cmp	r2, r3
 313 01b2 12DA     		bge	.L11
  88:.\main.c      ****         if((i < randstar)&&(randstar < i+20)) {
 314              		.loc 1 88 0 is_stmt 0 discriminator 1
 315 01b4 FB68     		ldr	r3, [r7, #12]
 316 01b6 1A1C     		mov	r2, r3
 317 01b8 1432     		add	r2, r2, #20
 318 01ba BB69     		ldr	r3, [r7, #24]
 319 01bc 9A42     		cmp	r2, r3
 320 01be 0CDD     		ble	.L11
  89:.\main.c      ****             GLCD_Pixel(coordx[randstar], coordy[randstar], GLCD_BLACK);
 321              		.loc 1 89 0 is_stmt 1
 322 01c0 9B4B     		ldr	r3, .L34
 323 01c2 BA69     		ldr	r2, [r7, #24]
 324 01c4 9200     		lsl	r2, r2, #2
 325 01c6 D258     		ldr	r2, [r2, r3]
 326 01c8 9A4B     		ldr	r3, .L34+4
 327 01ca B969     		ldr	r1, [r7, #24]
 328 01cc 8900     		lsl	r1, r1, #2
 329 01ce CB58     		ldr	r3, [r1, r3]
 330 01d0 101C     		mov	r0, r2
 331 01d2 191C     		mov	r1, r3
 332 01d4 0022     		mov	r2, #0
 333 01d6 FFF7FEFF 		bl	GLCD_Pixel
 334              	.L11:
  75:.\main.c      ****     for(i=0;i<200;i++){  
 335              		.loc 1 75 0
 336 01da FB68     		ldr	r3, [r7, #12]
 337 01dc 0133     		add	r3, r3, #1
 338 01de FB60     		str	r3, [r7, #12]
 339              	.L5:
  75:.\main.c      ****     for(i=0;i<200;i++){  
 340              		.loc 1 75 0 is_stmt 0 discriminator 1
 341 01e0 FB68     		ldr	r3, [r7, #12]
 342 01e2 C72B     		cmp	r3, #199
 343 01e4 00DC     		bgt	.LCB268
 344 01e6 71E7     		b	.L12	@long jump
 345              	.LCB268:
  93:.\main.c      ****     if(Com_Block_GetRxBufferSize() >= 1)    //If there is data, then it will execute
 346              		.loc 1 93 0 is_stmt 1
ARM GAS  C:\Users\Trenton\AppData\Local\Temp\ccZLiGyS.s 			page 11


 347 01e8 FFF7FEFF 		bl	Com_Block_GetRxBufferSize
 348 01ec 031C     		mov	r3, r0
 349 01ee 002B     		cmp	r3, #0
 350 01f0 1BD0     		beq	.L13
  95:.\main.c      ****         receive = Com_Block_ReadRxData();
 351              		.loc 1 95 0
 352 01f2 BC1C     		add	r4, r7, #2
 353 01f4 FFF7FEFF 		bl	Com_Block_ReadRxData
 354 01f8 031C     		mov	r3, r0
 355 01fa 2380     		strh	r3, [r4]
  96:.\main.c      ****         other_xCenter = receive & 127;                  //get first 7 bits - xcoord
 356              		.loc 1 96 0
 357 01fc BB1C     		add	r3, r7, #2
 358 01fe 1A88     		ldrh	r2, [r3]
 359 0200 7F23     		mov	r3, #127
 360 0202 1340     		and	r3, r2
 361 0204 FB62     		str	r3, [r7, #44]
  97:.\main.c      ****         other_yCenter = receive & 16256;                //get next 7 bits - ycoord
 362              		.loc 1 97 0
 363 0206 BB1C     		add	r3, r7, #2
 364 0208 1A88     		ldrh	r2, [r3]
 365 020a FE23     		mov	r3, #254
 366 020c 9B01     		lsl	r3, r3, #6
 367 020e 1340     		and	r3, r2
 368 0210 BB62     		str	r3, [r7, #40]
  98:.\main.c      ****         other_yCenter = other_yCenter >> 7;             //shift to get ycoord bits
 369              		.loc 1 98 0
 370 0212 BB6A     		ldr	r3, [r7, #40]
 371 0214 DB11     		asr	r3, r3, #7
 372 0216 BB62     		str	r3, [r7, #40]
  99:.\main.c      ****         other_blast_status = receive & 49152;           //get last 2 bits - blast status
 373              		.loc 1 99 0
 374 0218 BB1C     		add	r3, r7, #2
 375 021a 1A88     		ldrh	r2, [r3]
 376 021c C023     		mov	r3, #192
 377 021e 1B02     		lsl	r3, r3, #8
 378 0220 1340     		and	r3, r2
 379 0222 3B63     		str	r3, [r7, #48]
 100:.\main.c      ****         other_blast_status = other_blast_status >> 14;  //shift to get blast status bits
 380              		.loc 1 100 0
 381 0224 3B6B     		ldr	r3, [r7, #48]
 382 0226 9B13     		asr	r3, r3, #14
 383 0228 3B63     		str	r3, [r7, #48]
 384              	.L13:
 105:.\main.c      ****     if((other_old_xCenter != other_xCenter) || (other_old_yCenter != other_yCenter)){
 385              		.loc 1 105 0
 386 022a 7A6A     		ldr	r2, [r7, #36]
 387 022c FB6A     		ldr	r3, [r7, #44]
 388 022e 9A42     		cmp	r2, r3
 389 0230 03D1     		bne	.L14
 105:.\main.c      ****     if((other_old_xCenter != other_xCenter) || (other_old_yCenter != other_yCenter)){
 390              		.loc 1 105 0 is_stmt 0 discriminator 1
 391 0232 3A6A     		ldr	r2, [r7, #32]
 392 0234 BB6A     		ldr	r3, [r7, #40]
 393 0236 9A42     		cmp	r2, r3
 394 0238 06D0     		beq	.L15
 395              	.L14:
ARM GAS  C:\Users\Trenton\AppData\Local\Temp\ccZLiGyS.s 			page 12


 106:.\main.c      ****         crosshair(other_old_xCenter,other_old_yCenter, GLCD_BLACK);
 396              		.loc 1 106 0 is_stmt 1
 397 023a 7A6A     		ldr	r2, [r7, #36]
 398 023c 3B6A     		ldr	r3, [r7, #32]
 399 023e 101C     		mov	r0, r2
 400 0240 191C     		mov	r1, r3
 401 0242 0022     		mov	r2, #0
 402 0244 FFF7FEFF 		bl	crosshair
 403              	.L15:
 108:.\main.c      ****         crosshair(other_xCenter, other_yCenter, GLCD_BLUE);
 404              		.loc 1 108 0
 405 0248 FA6A     		ldr	r2, [r7, #44]
 406 024a BB6A     		ldr	r3, [r7, #40]
 407 024c 101C     		mov	r0, r2
 408 024e 191C     		mov	r1, r3
 409 0250 0F22     		mov	r2, #15
 410 0252 FFF7FEFF 		bl	crosshair
 109:.\main.c      ****         other_old_xCenter = other_xCenter;
 411              		.loc 1 109 0
 412 0256 FB6A     		ldr	r3, [r7, #44]
 413 0258 7B62     		str	r3, [r7, #36]
 110:.\main.c      ****         other_old_yCenter = other_yCenter;
 414              		.loc 1 110 0
 415 025a BB6A     		ldr	r3, [r7, #40]
 416 025c 3B62     		str	r3, [r7, #32]
 113:.\main.c      ****     crosshair(xcenter, ycenter, GLCD_ORANGE);
 417              		.loc 1 113 0
 418 025e F96B     		ldr	r1, [r7, #60]
 419 0260 BA6B     		ldr	r2, [r7, #56]
 420 0262 F423     		mov	r3, #244
 421 0264 1B01     		lsl	r3, r3, #4
 422 0266 081C     		mov	r0, r1
 423 0268 111C     		mov	r1, r2
 424 026a 1A1C     		mov	r2, r3
 425 026c FFF7FEFF 		bl	crosshair
 115:.\main.c      ****     blast_status = 0;   //Default blast status to no blast
 426              		.loc 1 115 0
 427 0270 0023     		mov	r3, #0
 428 0272 7B63     		str	r3, [r7, #52]
 120:.\main.c      ****     if(!Move_Right_Read()){
 429              		.loc 1 120 0
 430 0274 FFF7FEFF 		bl	Move_Right_Read
 431 0278 031C     		mov	r3, r0
 432 027a 002B     		cmp	r3, #0
 433 027c 15D1     		bne	.L16
 121:.\main.c      ****         if(ycenter < 112){  //Edge collision
 434              		.loc 1 121 0
 435 027e BB6B     		ldr	r3, [r7, #56]
 436 0280 6F2B     		cmp	r3, #111
 437 0282 09DC     		bgt	.L17
 122:.\main.c      ****             crosshair(xcenter,ycenter,GLCD_BLACK);  //Delete old cursor
 438              		.loc 1 122 0
 439 0284 FA6B     		ldr	r2, [r7, #60]
 440 0286 BB6B     		ldr	r3, [r7, #56]
 441 0288 101C     		mov	r0, r2
 442 028a 191C     		mov	r1, r3
 443 028c 0022     		mov	r2, #0
ARM GAS  C:\Users\Trenton\AppData\Local\Temp\ccZLiGyS.s 			page 13


 444 028e FFF7FEFF 		bl	crosshair
 123:.\main.c      ****             ycenter++;  //Move
 445              		.loc 1 123 0
 446 0292 BB6B     		ldr	r3, [r7, #56]
 447 0294 0133     		add	r3, r3, #1
 448 0296 BB63     		str	r3, [r7, #56]
 449              	.L17:
 125:.\main.c      ****             crosshair(xcenter,ycenter,GLCD_ORANGE); //Draw new location
 450              		.loc 1 125 0
 451 0298 F96B     		ldr	r1, [r7, #60]
 452 029a BA6B     		ldr	r2, [r7, #56]
 453 029c F423     		mov	r3, #244
 454 029e 1B01     		lsl	r3, r3, #4
 455 02a0 081C     		mov	r0, r1
 456 02a2 111C     		mov	r1, r2
 457 02a4 1A1C     		mov	r2, r3
 458 02a6 FFF7FEFF 		bl	crosshair
 459              	.L16:
 129:.\main.c      ****     if(!Move_Left_Read()){
 460              		.loc 1 129 0
 461 02aa FFF7FEFF 		bl	Move_Left_Read
 462 02ae 031C     		mov	r3, r0
 463 02b0 002B     		cmp	r3, #0
 464 02b2 15D1     		bne	.L18
 130:.\main.c      ****         if(ycenter > 20){
 465              		.loc 1 130 0
 466 02b4 BB6B     		ldr	r3, [r7, #56]
 467 02b6 142B     		cmp	r3, #20
 468 02b8 09DD     		ble	.L19
 131:.\main.c      ****             crosshair(xcenter,ycenter,GLCD_BLACK);
 469              		.loc 1 131 0
 470 02ba FA6B     		ldr	r2, [r7, #60]
 471 02bc BB6B     		ldr	r3, [r7, #56]
 472 02be 101C     		mov	r0, r2
 473 02c0 191C     		mov	r1, r3
 474 02c2 0022     		mov	r2, #0
 475 02c4 FFF7FEFF 		bl	crosshair
 132:.\main.c      ****             ycenter--;
 476              		.loc 1 132 0
 477 02c8 BB6B     		ldr	r3, [r7, #56]
 478 02ca 013B     		sub	r3, r3, #1
 479 02cc BB63     		str	r3, [r7, #56]
 480              	.L19:
 134:.\main.c      ****             crosshair(xcenter,ycenter,GLCD_ORANGE);
 481              		.loc 1 134 0
 482 02ce F96B     		ldr	r1, [r7, #60]
 483 02d0 BA6B     		ldr	r2, [r7, #56]
 484 02d2 F423     		mov	r3, #244
 485 02d4 1B01     		lsl	r3, r3, #4
 486 02d6 081C     		mov	r0, r1
 487 02d8 111C     		mov	r1, r2
 488 02da 1A1C     		mov	r2, r3
 489 02dc FFF7FEFF 		bl	crosshair
 490              	.L18:
 138:.\main.c      ****     if(!Move_Up_Read()){
 491              		.loc 1 138 0
 492 02e0 FFF7FEFF 		bl	Move_Up_Read
ARM GAS  C:\Users\Trenton\AppData\Local\Temp\ccZLiGyS.s 			page 14


 493 02e4 031C     		mov	r3, r0
 494 02e6 002B     		cmp	r3, #0
 495 02e8 15D1     		bne	.L20
 139:.\main.c      ****         if(xcenter > 20){
 496              		.loc 1 139 0
 497 02ea FB6B     		ldr	r3, [r7, #60]
 498 02ec 142B     		cmp	r3, #20
 499 02ee 09DD     		ble	.L21
 140:.\main.c      ****             crosshair(xcenter,ycenter,GLCD_BLACK);
 500              		.loc 1 140 0
 501 02f0 FA6B     		ldr	r2, [r7, #60]
 502 02f2 BB6B     		ldr	r3, [r7, #56]
 503 02f4 101C     		mov	r0, r2
 504 02f6 191C     		mov	r1, r3
 505 02f8 0022     		mov	r2, #0
 506 02fa FFF7FEFF 		bl	crosshair
 141:.\main.c      ****             xcenter--;
 507              		.loc 1 141 0
 508 02fe FB6B     		ldr	r3, [r7, #60]
 509 0300 013B     		sub	r3, r3, #1
 510 0302 FB63     		str	r3, [r7, #60]
 511              	.L21:
 143:.\main.c      ****             crosshair(xcenter,ycenter,GLCD_ORANGE);        
 512              		.loc 1 143 0
 513 0304 F96B     		ldr	r1, [r7, #60]
 514 0306 BA6B     		ldr	r2, [r7, #56]
 515 0308 F423     		mov	r3, #244
 516 030a 1B01     		lsl	r3, r3, #4
 517 030c 081C     		mov	r0, r1
 518 030e 111C     		mov	r1, r2
 519 0310 1A1C     		mov	r2, r3
 520 0312 FFF7FEFF 		bl	crosshair
 521              	.L20:
 147:.\main.c      ****     if(!Move_Down_Read()){
 522              		.loc 1 147 0
 523 0316 FFF7FEFF 		bl	Move_Down_Read
 524 031a 031C     		mov	r3, r0
 525 031c 002B     		cmp	r3, #0
 526 031e 15D1     		bne	.L22
 148:.\main.c      ****         if(xcenter < 112){
 527              		.loc 1 148 0
 528 0320 FB6B     		ldr	r3, [r7, #60]
 529 0322 6F2B     		cmp	r3, #111
 530 0324 09DC     		bgt	.L23
 149:.\main.c      ****             crosshair(xcenter,ycenter,GLCD_BLACK);
 531              		.loc 1 149 0
 532 0326 FA6B     		ldr	r2, [r7, #60]
 533 0328 BB6B     		ldr	r3, [r7, #56]
 534 032a 101C     		mov	r0, r2
 535 032c 191C     		mov	r1, r3
 536 032e 0022     		mov	r2, #0
 537 0330 FFF7FEFF 		bl	crosshair
 150:.\main.c      ****             xcenter++;
 538              		.loc 1 150 0
 539 0334 FB6B     		ldr	r3, [r7, #60]
 540 0336 0133     		add	r3, r3, #1
 541 0338 FB63     		str	r3, [r7, #60]
ARM GAS  C:\Users\Trenton\AppData\Local\Temp\ccZLiGyS.s 			page 15


 542              	.L23:
 152:.\main.c      ****             crosshair(xcenter,ycenter,GLCD_ORANGE);       
 543              		.loc 1 152 0
 544 033a F96B     		ldr	r1, [r7, #60]
 545 033c BA6B     		ldr	r2, [r7, #56]
 546 033e F423     		mov	r3, #244
 547 0340 1B01     		lsl	r3, r3, #4
 548 0342 081C     		mov	r0, r1
 549 0344 111C     		mov	r1, r2
 550 0346 1A1C     		mov	r2, r3
 551 0348 FFF7FEFF 		bl	crosshair
 552              	.L22:
 157:.\main.c      ****     if(!Blast_Read()){
 553              		.loc 1 157 0
 554 034c FFF7FEFF 		bl	Blast_Read
 555 0350 031C     		mov	r3, r0
 556 0352 002B     		cmp	r3, #0
 557 0354 10D1     		bne	.L24
 158:.\main.c      ****         blast_status = power;       //Sets status to proper explosion size
 558              		.loc 1 158 0
 559 0356 3B69     		ldr	r3, [r7, #16]
 560 0358 7B63     		str	r3, [r7, #52]
 159:.\main.c      ****         blast(xcenter,ycenter,power,0);
 561              		.loc 1 159 0
 562 035a F96B     		ldr	r1, [r7, #60]
 563 035c BA6B     		ldr	r2, [r7, #56]
 564 035e 3B69     		ldr	r3, [r7, #16]
 565 0360 081C     		mov	r0, r1
 566 0362 111C     		mov	r1, r2
 567 0364 1A1C     		mov	r2, r3
 568 0366 0023     		mov	r3, #0
 569 0368 FFF7FEFF 		bl	blast
 160:.\main.c      ****         power = 0;  //Just fired
 570              		.loc 1 160 0
 571 036c 0023     		mov	r3, #0
 572 036e 3B61     		str	r3, [r7, #16]
 161:.\main.c      ****         color(power); //Update LED light
 573              		.loc 1 161 0
 574 0370 3B69     		ldr	r3, [r7, #16]
 575 0372 181C     		mov	r0, r3
 576 0374 FFF7FEFF 		bl	color
 577              	.L24:
 165:.\main.c      ****     if(other_blast_status)
 578              		.loc 1 165 0
 579 0378 3B6B     		ldr	r3, [r7, #48]
 580 037a 002B     		cmp	r3, #0
 581 037c 08D0     		beq	.L25
 167:.\main.c      ****         blast(other_xCenter, other_yCenter, other_blast_status,1); //What a mouthful
 582              		.loc 1 167 0
 583 037e F96A     		ldr	r1, [r7, #44]
 584 0380 BA6A     		ldr	r2, [r7, #40]
 585 0382 3B6B     		ldr	r3, [r7, #48]
 586 0384 081C     		mov	r0, r1
 587 0386 111C     		mov	r1, r2
 588 0388 1A1C     		mov	r2, r3
 589 038a 0123     		mov	r3, #1
 590 038c FFF7FEFF 		bl	blast
ARM GAS  C:\Users\Trenton\AppData\Local\Temp\ccZLiGyS.s 			page 16


 591              	.L25:
 171:.\main.c      ****     if((timer%100 == 0) && (power < 2)){ //Increment every 100 cycles, not past 2
 592              		.loc 1 171 0
 593 0390 7B69     		ldr	r3, [r7, #20]
 594 0392 181C     		mov	r0, r3
 595 0394 6421     		mov	r1, #100
 596 0396 FFF7FEFF 		bl	__aeabi_idivmod
 597 039a 0B1C     		mov	r3, r1
 598 039c 002B     		cmp	r3, #0
 599 039e 09D1     		bne	.L26
 171:.\main.c      ****     if((timer%100 == 0) && (power < 2)){ //Increment every 100 cycles, not past 2
 600              		.loc 1 171 0 is_stmt 0 discriminator 1
 601 03a0 3B69     		ldr	r3, [r7, #16]
 602 03a2 012B     		cmp	r3, #1
 603 03a4 06DC     		bgt	.L26
 172:.\main.c      ****         power++; 
 604              		.loc 1 172 0 is_stmt 1
 605 03a6 3B69     		ldr	r3, [r7, #16]
 606 03a8 0133     		add	r3, r3, #1
 607 03aa 3B61     		str	r3, [r7, #16]
 173:.\main.c      ****         color(power); //Update LED
 608              		.loc 1 173 0
 609 03ac 3B69     		ldr	r3, [r7, #16]
 610 03ae 181C     		mov	r0, r3
 611 03b0 FFF7FEFF 		bl	color
 612              	.L26:
 175:.\main.c      ****     timer++;
 613              		.loc 1 175 0
 614 03b4 7B69     		ldr	r3, [r7, #20]
 615 03b6 0133     		add	r3, r3, #1
 616 03b8 7B61     		str	r3, [r7, #20]
 178:.\main.c      ****     if(Com_Block_ReadTxStatus() & Com_Block_STS_TX_FIFO_NOT_FULL)
 617              		.loc 1 178 0
 618 03ba FFF7FEFF 		bl	Com_Block_ReadTxStatus
 619 03be 031C     		mov	r3, r0
 620 03c0 1A1C     		mov	r2, r3
 621 03c2 0223     		mov	r3, #2
 622 03c4 1340     		and	r3, r2
 623 03c6 1FD0     		beq	.L27
 180:.\main.c      ****         send = blast_status;
 624              		.loc 1 180 0
 625 03c8 3B1C     		mov	r3, r7
 626 03ca 7A6B     		ldr	r2, [r7, #52]
 627 03cc 1A80     		strh	r2, [r3]
 181:.\main.c      ****         send = send << 7;
 628              		.loc 1 181 0
 629 03ce 3B1C     		mov	r3, r7
 630 03d0 3A1C     		mov	r2, r7
 631 03d2 1288     		ldrh	r2, [r2]
 632 03d4 D201     		lsl	r2, r2, #7
 633 03d6 1A80     		strh	r2, [r3]
 182:.\main.c      ****         send += ycenter;
 634              		.loc 1 182 0
 635 03d8 BB6B     		ldr	r3, [r7, #56]
 636 03da 99B2     		uxth	r1, r3
 637 03dc 3B1C     		mov	r3, r7
 638 03de 3A1C     		mov	r2, r7
ARM GAS  C:\Users\Trenton\AppData\Local\Temp\ccZLiGyS.s 			page 17


 639 03e0 1288     		ldrh	r2, [r2]
 640 03e2 8A18     		add	r2, r1, r2
 641 03e4 1A80     		strh	r2, [r3]
 183:.\main.c      ****         send = send << 7;
 642              		.loc 1 183 0
 643 03e6 3B1C     		mov	r3, r7
 644 03e8 3A1C     		mov	r2, r7
 645 03ea 1288     		ldrh	r2, [r2]
 646 03ec D201     		lsl	r2, r2, #7
 647 03ee 1A80     		strh	r2, [r3]
 184:.\main.c      ****         send += xcenter;
 648              		.loc 1 184 0
 649 03f0 FB6B     		ldr	r3, [r7, #60]
 650 03f2 99B2     		uxth	r1, r3
 651 03f4 3B1C     		mov	r3, r7
 652 03f6 3A1C     		mov	r2, r7
 653 03f8 1288     		ldrh	r2, [r2]
 654 03fa 8A18     		add	r2, r1, r2
 655 03fc 1A80     		strh	r2, [r3]
 185:.\main.c      ****         Com_Block_WriteTxData(send);
 656              		.loc 1 185 0
 657 03fe 3B1C     		mov	r3, r7
 658 0400 1B88     		ldrh	r3, [r3]
 659 0402 181C     		mov	r0, r3
 660 0404 FFF7FEFF 		bl	Com_Block_WriteTxData
 661              	.L27:
 189:.\main.c      ****     if((score1+score2)>199) {   //When all stars destroyed
 662              		.loc 1 189 0
 663 0408 0C4B     		ldr	r3, .L34+12
 664 040a 1A68     		ldr	r2, [r3]
 665 040c 0C4B     		ldr	r3, .L34+16
 666 040e 1B68     		ldr	r3, [r3]
 667 0410 D318     		add	r3, r2, r3
 668 0412 C72B     		cmp	r3, #199
 669 0414 00DC     		bgt	.LCB552
 670 0416 40E6     		b	.L31	@long jump
 671              	.LCB552:
 190:.\main.c      ****         cornerScreen1(score1);  //P1's score
 672              		.loc 1 190 0
 673 0418 084B     		ldr	r3, .L34+12
 674 041a 1B68     		ldr	r3, [r3]
 675 041c 181C     		mov	r0, r3
 676 041e FFF7FEFF 		bl	cornerScreen1
 191:.\main.c      ****         cornerScreen2(score2);  //P2's score
 677              		.loc 1 191 0
 678 0422 074B     		ldr	r3, .L34+16
 679 0424 1B68     		ldr	r3, [r3]
 680 0426 181C     		mov	r0, r3
 681 0428 FFF7FEFF 		bl	cornerScreen2
 682              	.L29:
 192:.\main.c      ****         while(1);   //End game
 683              		.loc 1 192 0 discriminator 1
 684 042c FEE7     		b	.L29
 685              	.L35:
 686 042e C046     		.align	2
 687              	.L34:
 688 0430 00000000 		.word	coordx
ARM GAS  C:\Users\Trenton\AppData\Local\Temp\ccZLiGyS.s 			page 18


 689 0434 00000000 		.word	coordy
 690 0438 FF0F0000 		.word	4095
 691 043c 00000000 		.word	score1
 692 0440 00000000 		.word	score2
 693              		.cfi_endproc
 694              	.LFE33:
 695              		.size	main, .-main
 696              		.section	.text.crosshair,"ax",%progbits
 697              		.align	2
 698              		.global	crosshair
 699              		.code	16
 700              		.thumb_func
 701              		.type	crosshair, %function
 702              	crosshair:
 703              	.LFB34:
 195:.\main.c      **** }
 196:.\main.c      **** 
 197:.\main.c      **** void crosshair(int xcoord, int ycoord, int color){
 704              		.loc 1 197 0
 705              		.cfi_startproc
 706 0000 90B5     		push	{r4, r7, lr}
 707              	.LCFI3:
 708              		.cfi_def_cfa_offset 12
 709              		.cfi_offset 4, -12
 710              		.cfi_offset 7, -8
 711              		.cfi_offset 14, -4
 712 0002 87B0     		sub	sp, sp, #28
 713              	.LCFI4:
 714              		.cfi_def_cfa_offset 40
 715 0004 02AF     		add	r7, sp, #8
 716              	.LCFI5:
 717              		.cfi_def_cfa 7, 32
 718 0006 F860     		str	r0, [r7, #12]
 719 0008 B960     		str	r1, [r7, #8]
 720 000a 7A60     		str	r2, [r7, #4]
 198:.\main.c      ****     //Two lines, intersect at coordinates
 199:.\main.c      ****     GLCD_DrawLine(xcoord,ycoord-15,xcoord,ycoord+15,color);
 721              		.loc 1 199 0
 722 000c BB68     		ldr	r3, [r7, #8]
 723 000e 191C     		mov	r1, r3
 724 0010 0F39     		sub	r1, r1, #15
 725 0012 BB68     		ldr	r3, [r7, #8]
 726 0014 0F33     		add	r3, r3, #15
 727 0016 F868     		ldr	r0, [r7, #12]
 728 0018 FA68     		ldr	r2, [r7, #12]
 729 001a 7C68     		ldr	r4, [r7, #4]
 730 001c 0094     		str	r4, [sp]
 731 001e FFF7FEFF 		bl	GLCD_DrawLine
 200:.\main.c      ****     GLCD_DrawLine(xcoord-15,ycoord,xcoord+15,ycoord,color);
 732              		.loc 1 200 0
 733 0022 FB68     		ldr	r3, [r7, #12]
 734 0024 181C     		mov	r0, r3
 735 0026 0F38     		sub	r0, r0, #15
 736 0028 FB68     		ldr	r3, [r7, #12]
 737 002a 1A1C     		mov	r2, r3
 738 002c 0F32     		add	r2, r2, #15
 739 002e B968     		ldr	r1, [r7, #8]
ARM GAS  C:\Users\Trenton\AppData\Local\Temp\ccZLiGyS.s 			page 19


 740 0030 BB68     		ldr	r3, [r7, #8]
 741 0032 7C68     		ldr	r4, [r7, #4]
 742 0034 0094     		str	r4, [sp]
 743 0036 FFF7FEFF 		bl	GLCD_DrawLine
 201:.\main.c      ****     //Two circles
 202:.\main.c      ****     GLCD_DrawCircle(xcoord,ycoord,10,color);
 744              		.loc 1 202 0
 745 003a F968     		ldr	r1, [r7, #12]
 746 003c BA68     		ldr	r2, [r7, #8]
 747 003e 7B68     		ldr	r3, [r7, #4]
 748 0040 081C     		mov	r0, r1
 749 0042 111C     		mov	r1, r2
 750 0044 0A22     		mov	r2, #10
 751 0046 FFF7FEFF 		bl	GLCD_DrawCircle
 203:.\main.c      ****     GLCD_DrawCircle(xcoord,ycoord,5,color);
 752              		.loc 1 203 0
 753 004a F968     		ldr	r1, [r7, #12]
 754 004c BA68     		ldr	r2, [r7, #8]
 755 004e 7B68     		ldr	r3, [r7, #4]
 756 0050 081C     		mov	r0, r1
 757 0052 111C     		mov	r1, r2
 758 0054 0522     		mov	r2, #5
 759 0056 FFF7FEFF 		bl	GLCD_DrawCircle
 204:.\main.c      **** }
 760              		.loc 1 204 0
 761 005a BD46     		mov	sp, r7
 762 005c 05B0     		add	sp, sp, #20
 763              		@ sp needed for prologue
 764 005e 90BD     		pop	{r4, r7, pc}
 765              		.cfi_endproc
 766              	.LFE34:
 767              		.size	crosshair, .-crosshair
 768              		.section	.text.blast,"ax",%progbits
 769              		.align	2
 770              		.global	blast
 771              		.code	16
 772              		.thumb_func
 773              		.type	blast, %function
 774              	blast:
 775              	.LFB35:
 205:.\main.c      **** 
 206:.\main.c      **** void blast(int xmiddle, int ymiddle, int power, int player){
 776              		.loc 1 206 0
 777              		.cfi_startproc
 778 0000 80B5     		push	{r7, lr}
 779              	.LCFI6:
 780              		.cfi_def_cfa_offset 8
 781              		.cfi_offset 7, -8
 782              		.cfi_offset 14, -4
 783 0002 86B0     		sub	sp, sp, #24
 784              	.LCFI7:
 785              		.cfi_def_cfa_offset 32
 786 0004 00AF     		add	r7, sp, #0
 787              	.LCFI8:
 788              		.cfi_def_cfa_register 7
 789 0006 F860     		str	r0, [r7, #12]
 790 0008 B960     		str	r1, [r7, #8]
ARM GAS  C:\Users\Trenton\AppData\Local\Temp\ccZLiGyS.s 			page 20


 791 000a 7A60     		str	r2, [r7, #4]
 792 000c 3B60     		str	r3, [r7]
 207:.\main.c      ****     if(power){ //Don't fire if power == 0
 793              		.loc 1 207 0
 794 000e 7B68     		ldr	r3, [r7, #4]
 795 0010 002B     		cmp	r3, #0
 796 0012 00D1     		bne	.LCB661
 797 0014 8FE0     		b	.L37	@long jump
 798              	.LCB661:
 799              	.LBB3:
 208:.\main.c      ****         int j;
 209:.\main.c      ****         for(j = 0; j<(power*20); j++){//Explosion alternates between green and orange
 800              		.loc 1 209 0
 801 0016 0023     		mov	r3, #0
 802 0018 7B61     		str	r3, [r7, #20]
 803 001a 15E0     		b	.L39
 804              	.L40:
 210:.\main.c      ****             GLCD_DrawCircle(xmiddle, ymiddle, j, GLCD_GREEN);
 805              		.loc 1 210 0 discriminator 2
 806 001c F968     		ldr	r1, [r7, #12]
 807 001e BA68     		ldr	r2, [r7, #8]
 808 0020 7B69     		ldr	r3, [r7, #20]
 809 0022 081C     		mov	r0, r1
 810 0024 111C     		mov	r1, r2
 811 0026 1A1C     		mov	r2, r3
 812 0028 F023     		mov	r3, #240
 813 002a FFF7FEFF 		bl	GLCD_DrawCircle
 211:.\main.c      ****             j++;
 814              		.loc 1 211 0 discriminator 2
 815 002e 7B69     		ldr	r3, [r7, #20]
 816 0030 0133     		add	r3, r3, #1
 817 0032 7B61     		str	r3, [r7, #20]
 212:.\main.c      ****             GLCD_DrawCircle(xmiddle, ymiddle, j, GLCD_ORANGE);
 818              		.loc 1 212 0 discriminator 2
 819 0034 F868     		ldr	r0, [r7, #12]
 820 0036 B968     		ldr	r1, [r7, #8]
 821 0038 7A69     		ldr	r2, [r7, #20]
 822 003a F423     		mov	r3, #244
 823 003c 1B01     		lsl	r3, r3, #4
 824 003e FFF7FEFF 		bl	GLCD_DrawCircle
 209:.\main.c      ****         for(j = 0; j<(power*20); j++){//Explosion alternates between green and orange
 825              		.loc 1 209 0 discriminator 2
 826 0042 7B69     		ldr	r3, [r7, #20]
 827 0044 0133     		add	r3, r3, #1
 828 0046 7B61     		str	r3, [r7, #20]
 829              	.L39:
 209:.\main.c      ****         for(j = 0; j<(power*20); j++){//Explosion alternates between green and orange
 830              		.loc 1 209 0 is_stmt 0 discriminator 1
 831 0048 7A68     		ldr	r2, [r7, #4]
 832 004a 131C     		mov	r3, r2
 833 004c 9B00     		lsl	r3, r3, #2
 834 004e 9B18     		add	r3, r3, r2
 835 0050 9B00     		lsl	r3, r3, #2
 836 0052 1A1C     		mov	r2, r3
 837 0054 7B69     		ldr	r3, [r7, #20]
 838 0056 9A42     		cmp	r2, r3
 839 0058 E0DC     		bgt	.L40
ARM GAS  C:\Users\Trenton\AppData\Local\Temp\ccZLiGyS.s 			page 21


 213:.\main.c      ****         }
 214:.\main.c      ****         for(j = 0; j<(power*20)+1; j++){//Delete explosion
 840              		.loc 1 214 0 is_stmt 1
 841 005a 0023     		mov	r3, #0
 842 005c 7B61     		str	r3, [r7, #20]
 843 005e 0BE0     		b	.L41
 844              	.L42:
 215:.\main.c      ****             GLCD_DrawCircle(xmiddle, ymiddle, j, GLCD_BLACK);
 845              		.loc 1 215 0 discriminator 2
 846 0060 F968     		ldr	r1, [r7, #12]
 847 0062 BA68     		ldr	r2, [r7, #8]
 848 0064 7B69     		ldr	r3, [r7, #20]
 849 0066 081C     		mov	r0, r1
 850 0068 111C     		mov	r1, r2
 851 006a 1A1C     		mov	r2, r3
 852 006c 0023     		mov	r3, #0
 853 006e FFF7FEFF 		bl	GLCD_DrawCircle
 214:.\main.c      ****         for(j = 0; j<(power*20)+1; j++){//Delete explosion
 854              		.loc 1 214 0 discriminator 2
 855 0072 7B69     		ldr	r3, [r7, #20]
 856 0074 0133     		add	r3, r3, #1
 857 0076 7B61     		str	r3, [r7, #20]
 858              	.L41:
 214:.\main.c      ****         for(j = 0; j<(power*20)+1; j++){//Delete explosion
 859              		.loc 1 214 0 is_stmt 0 discriminator 1
 860 0078 7A68     		ldr	r2, [r7, #4]
 861 007a 131C     		mov	r3, r2
 862 007c 9B00     		lsl	r3, r3, #2
 863 007e 9B18     		add	r3, r3, r2
 864 0080 9B00     		lsl	r3, r3, #2
 865 0082 5A1C     		add	r2, r3, #1
 866 0084 7B69     		ldr	r3, [r7, #20]
 867 0086 9A42     		cmp	r2, r3
 868 0088 EADC     		bgt	.L42
 216:.\main.c      ****         }
 217:.\main.c      ****         //Delete hit stars
 218:.\main.c      ****         for(j=0;j<200;++j){
 869              		.loc 1 218 0 is_stmt 1
 870 008a 0023     		mov	r3, #0
 871 008c 7B61     		str	r3, [r7, #20]
 872 008e 4FE0     		b	.L43
 873              	.L46:
 219:.\main.c      ****             if( //Check coordinates of all stars
 220:.\main.c      ****                 ((distance(coordx[j],xmiddle,coordy[j],ymiddle))<(((power*20)+1)*((power*20)+1)))  
 874              		.loc 1 220 0
 875 0090 2A4B     		ldr	r3, .L47
 876 0092 7A69     		ldr	r2, [r7, #20]
 877 0094 9200     		lsl	r2, r2, #2
 878 0096 D058     		ldr	r0, [r2, r3]
 879 0098 294B     		ldr	r3, .L47+4
 880 009a 7A69     		ldr	r2, [r7, #20]
 881 009c 9200     		lsl	r2, r2, #2
 882 009e D258     		ldr	r2, [r2, r3]
 883 00a0 F968     		ldr	r1, [r7, #12]
 884 00a2 BB68     		ldr	r3, [r7, #8]
 885 00a4 FFF7FEFF 		bl	distance
 886 00a8 011C     		mov	r1, r0
ARM GAS  C:\Users\Trenton\AppData\Local\Temp\ccZLiGyS.s 			page 22


 887 00aa 7A68     		ldr	r2, [r7, #4]
 888 00ac 131C     		mov	r3, r2
 889 00ae 9B00     		lsl	r3, r3, #2
 890 00b0 9B18     		add	r3, r3, r2
 891 00b2 9B00     		lsl	r3, r3, #2
 892 00b4 581C     		add	r0, r3, #1
 893 00b6 7A68     		ldr	r2, [r7, #4]
 894 00b8 131C     		mov	r3, r2
 895 00ba 9B00     		lsl	r3, r3, #2
 896 00bc 9B18     		add	r3, r3, r2
 897 00be 9B00     		lsl	r3, r3, #2
 898 00c0 0133     		add	r3, r3, #1
 899 00c2 4343     		mul	r3, r0
 219:.\main.c      ****             if( //Check coordinates of all stars
 900              		.loc 1 219 0
 901 00c4 9942     		cmp	r1, r3
 902 00c6 30DA     		bge	.L44
 221:.\main.c      ****                 && ((coordx[j]!=0)&&(coordy[j]!=0)))   //Stars at (0,0) already destroyed
 903              		.loc 1 221 0
 904 00c8 1C4B     		ldr	r3, .L47
 905 00ca 7A69     		ldr	r2, [r7, #20]
 906 00cc 9200     		lsl	r2, r2, #2
 907 00ce D358     		ldr	r3, [r2, r3]
 908 00d0 002B     		cmp	r3, #0
 909 00d2 2AD0     		beq	.L44
 910              		.loc 1 221 0 is_stmt 0 discriminator 1
 911 00d4 1A4B     		ldr	r3, .L47+4
 912 00d6 7A69     		ldr	r2, [r7, #20]
 913 00d8 9200     		lsl	r2, r2, #2
 914 00da D358     		ldr	r3, [r2, r3]
 915 00dc 002B     		cmp	r3, #0
 916 00de 24D0     		beq	.L44
 222:.\main.c      ****                 {
 223:.\main.c      ****                     GLCD_Pixel(coordx[j],coordy[j],GLCD_BLACK); //Catches stars explosion doesn't d
 917              		.loc 1 223 0 is_stmt 1
 918 00e0 164B     		ldr	r3, .L47
 919 00e2 7A69     		ldr	r2, [r7, #20]
 920 00e4 9200     		lsl	r2, r2, #2
 921 00e6 D258     		ldr	r2, [r2, r3]
 922 00e8 154B     		ldr	r3, .L47+4
 923 00ea 7969     		ldr	r1, [r7, #20]
 924 00ec 8900     		lsl	r1, r1, #2
 925 00ee CB58     		ldr	r3, [r1, r3]
 926 00f0 101C     		mov	r0, r2
 927 00f2 191C     		mov	r1, r3
 928 00f4 0022     		mov	r2, #0
 929 00f6 FFF7FEFF 		bl	GLCD_Pixel
 224:.\main.c      ****                     coordx[j]=0;
 930              		.loc 1 224 0
 931 00fa 104B     		ldr	r3, .L47
 932 00fc 7A69     		ldr	r2, [r7, #20]
 933 00fe 9200     		lsl	r2, r2, #2
 934 0100 0021     		mov	r1, #0
 935 0102 D150     		str	r1, [r2, r3]
 225:.\main.c      ****                     coordy[j]=0;
 936              		.loc 1 225 0
 937 0104 0E4B     		ldr	r3, .L47+4
ARM GAS  C:\Users\Trenton\AppData\Local\Temp\ccZLiGyS.s 			page 23


 938 0106 7A69     		ldr	r2, [r7, #20]
 939 0108 9200     		lsl	r2, r2, #2
 940 010a 0021     		mov	r1, #0
 941 010c D150     		str	r1, [r2, r3]
 226:.\main.c      ****                     if(player)  //Player=1 for p2, 0 for p1
 942              		.loc 1 226 0
 943 010e 3B68     		ldr	r3, [r7]
 944 0110 002B     		cmp	r3, #0
 945 0112 05D0     		beq	.L45
 227:.\main.c      ****                         ++score2;
 946              		.loc 1 227 0
 947 0114 0B4B     		ldr	r3, .L47+8
 948 0116 1B68     		ldr	r3, [r3]
 949 0118 5A1C     		add	r2, r3, #1
 950 011a 0A4B     		ldr	r3, .L47+8
 951 011c 1A60     		str	r2, [r3]
 952 011e 04E0     		b	.L44
 953              	.L45:
 228:.\main.c      ****                     else ++score1;
 954              		.loc 1 228 0
 955 0120 094B     		ldr	r3, .L47+12
 956 0122 1B68     		ldr	r3, [r3]
 957 0124 5A1C     		add	r2, r3, #1
 958 0126 084B     		ldr	r3, .L47+12
 959 0128 1A60     		str	r2, [r3]
 960              	.L44:
 218:.\main.c      ****         for(j=0;j<200;++j){
 961              		.loc 1 218 0
 962 012a 7B69     		ldr	r3, [r7, #20]
 963 012c 0133     		add	r3, r3, #1
 964 012e 7B61     		str	r3, [r7, #20]
 965              	.L43:
 218:.\main.c      ****         for(j=0;j<200;++j){
 966              		.loc 1 218 0 is_stmt 0 discriminator 1
 967 0130 7B69     		ldr	r3, [r7, #20]
 968 0132 C72B     		cmp	r3, #199
 969 0134 ACDD     		ble	.L46
 970              	.L37:
 971              	.LBE3:
 229:.\main.c      ****                 }
 230:.\main.c      ****         }
 231:.\main.c      ****     }
 232:.\main.c      **** }
 972              		.loc 1 232 0 is_stmt 1
 973 0136 BD46     		mov	sp, r7
 974 0138 06B0     		add	sp, sp, #24
 975              		@ sp needed for prologue
 976 013a 80BD     		pop	{r7, pc}
 977              	.L48:
 978              		.align	2
 979              	.L47:
 980 013c 00000000 		.word	coordx
 981 0140 00000000 		.word	coordy
 982 0144 00000000 		.word	score2
 983 0148 00000000 		.word	score1
 984              		.cfi_endproc
 985              	.LFE35:
ARM GAS  C:\Users\Trenton\AppData\Local\Temp\ccZLiGyS.s 			page 24


 986              		.size	blast, .-blast
 987              		.section	.text.color,"ax",%progbits
 988              		.align	2
 989              		.global	color
 990              		.code	16
 991              		.thumb_func
 992              		.type	color, %function
 993              	color:
 994              	.LFB36:
 233:.\main.c      **** 
 234:.\main.c      **** void color(int level)
 235:.\main.c      **** {
 995              		.loc 1 235 0
 996              		.cfi_startproc
 997 0000 80B5     		push	{r7, lr}
 998              	.LCFI9:
 999              		.cfi_def_cfa_offset 8
 1000              		.cfi_offset 7, -8
 1001              		.cfi_offset 14, -4
 1002 0002 82B0     		sub	sp, sp, #8
 1003              	.LCFI10:
 1004              		.cfi_def_cfa_offset 16
 1005 0004 00AF     		add	r7, sp, #0
 1006              	.LCFI11:
 1007              		.cfi_def_cfa_register 7
 1008 0006 7860     		str	r0, [r7, #4]
 236:.\main.c      ****     if(level == 0){ //Red on
 1009              		.loc 1 236 0
 1010 0008 7B68     		ldr	r3, [r7, #4]
 1011 000a 002B     		cmp	r3, #0
 1012 000c 08D1     		bne	.L50
 237:.\main.c      ****         Blast_Red_Write(0);
 1013              		.loc 1 237 0
 1014 000e 0020     		mov	r0, #0
 1015 0010 FFF7FEFF 		bl	Blast_Red_Write
 238:.\main.c      ****         Blast_Blue_Write(1);
 1016              		.loc 1 238 0
 1017 0014 0120     		mov	r0, #1
 1018 0016 FFF7FEFF 		bl	Blast_Blue_Write
 239:.\main.c      ****         Blast_Green_Write(1);
 1019              		.loc 1 239 0
 1020 001a 0120     		mov	r0, #1
 1021 001c FFF7FEFF 		bl	Blast_Green_Write
 1022              	.L50:
 240:.\main.c      ****     }
 241:.\main.c      ****     if(level == 1){ //Blue on
 1023              		.loc 1 241 0
 1024 0020 7B68     		ldr	r3, [r7, #4]
 1025 0022 012B     		cmp	r3, #1
 1026 0024 08D1     		bne	.L51
 242:.\main.c      ****         Blast_Red_Write(1);
 1027              		.loc 1 242 0
 1028 0026 0120     		mov	r0, #1
 1029 0028 FFF7FEFF 		bl	Blast_Red_Write
 243:.\main.c      ****         Blast_Blue_Write(0);
 1030              		.loc 1 243 0
 1031 002c 0020     		mov	r0, #0
ARM GAS  C:\Users\Trenton\AppData\Local\Temp\ccZLiGyS.s 			page 25


 1032 002e FFF7FEFF 		bl	Blast_Blue_Write
 244:.\main.c      ****         Blast_Green_Write(1);
 1033              		.loc 1 244 0
 1034 0032 0120     		mov	r0, #1
 1035 0034 FFF7FEFF 		bl	Blast_Green_Write
 1036              	.L51:
 245:.\main.c      ****     }
 246:.\main.c      ****     if(level == 2){ //Green on
 1037              		.loc 1 246 0
 1038 0038 7B68     		ldr	r3, [r7, #4]
 1039 003a 022B     		cmp	r3, #2
 1040 003c 08D1     		bne	.L49
 247:.\main.c      ****         Blast_Red_Write(1);
 1041              		.loc 1 247 0
 1042 003e 0120     		mov	r0, #1
 1043 0040 FFF7FEFF 		bl	Blast_Red_Write
 248:.\main.c      ****         Blast_Blue_Write(1);
 1044              		.loc 1 248 0
 1045 0044 0120     		mov	r0, #1
 1046 0046 FFF7FEFF 		bl	Blast_Blue_Write
 249:.\main.c      ****         Blast_Green_Write(0);
 1047              		.loc 1 249 0
 1048 004a 0020     		mov	r0, #0
 1049 004c FFF7FEFF 		bl	Blast_Green_Write
 1050              	.L49:
 250:.\main.c      ****     }
 251:.\main.c      **** }
 1051              		.loc 1 251 0
 1052 0050 BD46     		mov	sp, r7
 1053 0052 02B0     		add	sp, sp, #8
 1054              		@ sp needed for prologue
 1055 0054 80BD     		pop	{r7, pc}
 1056              		.cfi_endproc
 1057              	.LFE36:
 1058              		.size	color, .-color
 1059 0056 C046     		.section	.rodata
 1060              		.align	2
 1061              	.LC8:
 1062 0000 25642053 		.ascii	"%d Stars\000"
 1062      74617273 
 1062      00
 1063 0009 000000   		.section	.text.cornerScreen1,"ax",%progbits
 1064              		.align	2
 1065              		.global	cornerScreen1
 1066              		.code	16
 1067              		.thumb_func
 1068              		.type	cornerScreen1, %function
 1069              	cornerScreen1:
 1070              	.LFB37:
 252:.\main.c      **** 
 253:.\main.c      **** void cornerScreen1(score)
 254:.\main.c      **** {
 1071              		.loc 1 254 0
 1072              		.cfi_startproc
 1073 0000 80B5     		push	{r7, lr}
 1074              	.LCFI12:
 1075              		.cfi_def_cfa_offset 8
ARM GAS  C:\Users\Trenton\AppData\Local\Temp\ccZLiGyS.s 			page 26


 1076              		.cfi_offset 7, -8
 1077              		.cfi_offset 14, -4
 1078 0002 8AB0     		sub	sp, sp, #40
 1079              	.LCFI13:
 1080              		.cfi_def_cfa_offset 48
 1081 0004 02AF     		add	r7, sp, #8
 1082              	.LCFI14:
 1083              		.cfi_def_cfa 7, 40
 1084 0006 7860     		str	r0, [r7, #4]
 255:.\main.c      ****     char scoreStr[20];
 256:.\main.c      ****     sprintf(scoreStr, "%d Stars", (200-score));
 1085              		.loc 1 256 0
 1086 0008 7B68     		ldr	r3, [r7, #4]
 1087 000a C822     		mov	r2, #200
 1088 000c D31A     		sub	r3, r2, r3
 1089 000e 391C     		mov	r1, r7
 1090 0010 0C31     		add	r1, r1, #12
 1091 0012 0F4A     		ldr	r2, .L54
 1092 0014 081C     		mov	r0, r1
 1093 0016 111C     		mov	r1, r2
 1094 0018 1A1C     		mov	r2, r3
 1095 001a FFF7FEFF 		bl	sprintf
 257:.\main.c      ****     GLCD_DrawRect(0,20,50,110,1,GLCD_ORANGE); //Draw splash screen
 1096              		.loc 1 257 0
 1097 001e 0123     		mov	r3, #1
 1098 0020 0093     		str	r3, [sp]
 1099 0022 F423     		mov	r3, #244
 1100 0024 1B01     		lsl	r3, r3, #4
 1101 0026 0193     		str	r3, [sp, #4]
 1102 0028 0020     		mov	r0, #0
 1103 002a 1421     		mov	r1, #20
 1104 002c 3222     		mov	r2, #50
 1105 002e 6E23     		mov	r3, #110
 1106 0030 FFF7FEFF 		bl	GLCD_DrawRect
 258:.\main.c      ****     GLCD_PrintString(scoreStr,15,30,GLCD_BLACK,GLCD_ORANGE);
 1107              		.loc 1 258 0
 1108 0034 3B1C     		mov	r3, r7
 1109 0036 0C33     		add	r3, r3, #12
 1110 0038 F422     		mov	r2, #244
 1111 003a 1201     		lsl	r2, r2, #4
 1112 003c 0092     		str	r2, [sp]
 1113 003e 181C     		mov	r0, r3
 1114 0040 0F21     		mov	r1, #15
 1115 0042 1E22     		mov	r2, #30
 1116 0044 0023     		mov	r3, #0
 1117 0046 FFF7FEFF 		bl	GLCD_PrintString
 259:.\main.c      **** }
 1118              		.loc 1 259 0
 1119 004a BD46     		mov	sp, r7
 1120 004c 08B0     		add	sp, sp, #32
 1121              		@ sp needed for prologue
 1122 004e 80BD     		pop	{r7, pc}
 1123              	.L55:
 1124              		.align	2
 1125              	.L54:
 1126 0050 00000000 		.word	.LC8
 1127              		.cfi_endproc
ARM GAS  C:\Users\Trenton\AppData\Local\Temp\ccZLiGyS.s 			page 27


 1128              	.LFE37:
 1129              		.size	cornerScreen1, .-cornerScreen1
 1130              		.section	.text.cornerScreen2,"ax",%progbits
 1131              		.align	2
 1132              		.global	cornerScreen2
 1133              		.code	16
 1134              		.thumb_func
 1135              		.type	cornerScreen2, %function
 1136              	cornerScreen2:
 1137              	.LFB38:
 260:.\main.c      **** 
 261:.\main.c      **** void cornerScreen2(score)
 262:.\main.c      **** {
 1138              		.loc 1 262 0
 1139              		.cfi_startproc
 1140 0000 80B5     		push	{r7, lr}
 1141              	.LCFI15:
 1142              		.cfi_def_cfa_offset 8
 1143              		.cfi_offset 7, -8
 1144              		.cfi_offset 14, -4
 1145 0002 8AB0     		sub	sp, sp, #40
 1146              	.LCFI16:
 1147              		.cfi_def_cfa_offset 48
 1148 0004 02AF     		add	r7, sp, #8
 1149              	.LCFI17:
 1150              		.cfi_def_cfa 7, 40
 1151 0006 7860     		str	r0, [r7, #4]
 263:.\main.c      ****     char scoreStr[20];
 264:.\main.c      ****     sprintf(scoreStr, "%d Stars", (200-score));
 1152              		.loc 1 264 0
 1153 0008 7B68     		ldr	r3, [r7, #4]
 1154 000a C822     		mov	r2, #200
 1155 000c D31A     		sub	r3, r2, r3
 1156 000e 391C     		mov	r1, r7
 1157 0010 0C31     		add	r1, r1, #12
 1158 0012 0E4A     		ldr	r2, .L57
 1159 0014 081C     		mov	r0, r1
 1160 0016 111C     		mov	r1, r2
 1161 0018 1A1C     		mov	r2, r3
 1162 001a FFF7FEFF 		bl	sprintf
 265:.\main.c      ****     GLCD_DrawRect(132,20,82,110,1,GLCD_BLUE); //Draw splash screen
 1163              		.loc 1 265 0
 1164 001e 0123     		mov	r3, #1
 1165 0020 0093     		str	r3, [sp]
 1166 0022 0F23     		mov	r3, #15
 1167 0024 0193     		str	r3, [sp, #4]
 1168 0026 8420     		mov	r0, #132
 1169 0028 1421     		mov	r1, #20
 1170 002a 5222     		mov	r2, #82
 1171 002c 6E23     		mov	r3, #110
 1172 002e FFF7FEFF 		bl	GLCD_DrawRect
 266:.\main.c      ****     GLCD_PrintString(scoreStr,97,30,GLCD_BLACK,GLCD_BLUE);
 1173              		.loc 1 266 0
 1174 0032 3B1C     		mov	r3, r7
 1175 0034 0C33     		add	r3, r3, #12
 1176 0036 0F22     		mov	r2, #15
 1177 0038 0092     		str	r2, [sp]
ARM GAS  C:\Users\Trenton\AppData\Local\Temp\ccZLiGyS.s 			page 28


 1178 003a 181C     		mov	r0, r3
 1179 003c 6121     		mov	r1, #97
 1180 003e 1E22     		mov	r2, #30
 1181 0040 0023     		mov	r3, #0
 1182 0042 FFF7FEFF 		bl	GLCD_PrintString
 267:.\main.c      **** }
 1183              		.loc 1 267 0
 1184 0046 BD46     		mov	sp, r7
 1185 0048 08B0     		add	sp, sp, #32
 1186              		@ sp needed for prologue
 1187 004a 80BD     		pop	{r7, pc}
 1188              	.L58:
 1189              		.align	2
 1190              	.L57:
 1191 004c 00000000 		.word	.LC8
 1192              		.cfi_endproc
 1193              	.LFE38:
 1194              		.size	cornerScreen2, .-cornerScreen2
 1195              		.section	.text.distance,"ax",%progbits
 1196              		.align	2
 1197              		.global	distance
 1198              		.code	16
 1199              		.thumb_func
 1200              		.type	distance, %function
 1201              	distance:
 1202              	.LFB39:
 268:.\main.c      **** 
 269:.\main.c      **** inline int distance(x1,y1,x2,y2)
 270:.\main.c      **** {
 1203              		.loc 1 270 0
 1204              		.cfi_startproc
 1205 0000 80B5     		push	{r7, lr}
 1206              	.LCFI18:
 1207              		.cfi_def_cfa_offset 8
 1208              		.cfi_offset 7, -8
 1209              		.cfi_offset 14, -4
 1210 0002 84B0     		sub	sp, sp, #16
 1211              	.LCFI19:
 1212              		.cfi_def_cfa_offset 24
 1213 0004 00AF     		add	r7, sp, #0
 1214              	.LCFI20:
 1215              		.cfi_def_cfa_register 7
 1216 0006 F860     		str	r0, [r7, #12]
 1217 0008 B960     		str	r1, [r7, #8]
 1218 000a 7A60     		str	r2, [r7, #4]
 1219 000c 3B60     		str	r3, [r7]
 271:.\main.c      ****     return (((x1-y1)*(x1-y1))+((x2-y2)*(x2-y2)));
 1220              		.loc 1 271 0
 1221 000e FA68     		ldr	r2, [r7, #12]
 1222 0010 BB68     		ldr	r3, [r7, #8]
 1223 0012 D31A     		sub	r3, r2, r3
 1224 0014 F968     		ldr	r1, [r7, #12]
 1225 0016 BA68     		ldr	r2, [r7, #8]
 1226 0018 8A1A     		sub	r2, r1, r2
 1227 001a 5A43     		mul	r2, r3
 1228 001c 7968     		ldr	r1, [r7, #4]
 1229 001e 3B68     		ldr	r3, [r7]
ARM GAS  C:\Users\Trenton\AppData\Local\Temp\ccZLiGyS.s 			page 29


 1230 0020 CB1A     		sub	r3, r1, r3
 1231 0022 7868     		ldr	r0, [r7, #4]
 1232 0024 3968     		ldr	r1, [r7]
 1233 0026 411A     		sub	r1, r0, r1
 1234 0028 4B43     		mul	r3, r1
 1235 002a D318     		add	r3, r2, r3
 272:.\main.c      **** }...
 1236              		.loc 1 272 0
 1237 002c 181C     		mov	r0, r3
 1238 002e BD46     		mov	sp, r7
 1239 0030 04B0     		add	sp, sp, #16
 1240              		@ sp needed for prologue
 1241 0032 80BD     		pop	{r7, pc}
 1242              		.cfi_endproc
 1243              	.LFE39:
 1244              		.size	distance, .-distance
 1245              		.text
 1246              	.Letext0:
 1247              		.file 2 "./Generated_Source/PSoC4/cytypes.h"
 1248              		.file 3 "./Generated_Source/PSoC4/GLCD.h"